(dp0
cnumpy.core.multiarray
scalar
p1
(cnumpy
dtype
p2
(S'i8'
p3
I0
I1
tp4
Rp5
(I3
S'<'
p6
NNNI-1
I-1
I0
tp7
bS'0\xc6\x1f\x00\x00\x00\x00\x00'
p8
tp9
Rp10
(dp11
S't_h'
p12
(lp13
S'2015-01-24 09:00:00'
p14
aS'2015-01-24 10:00:00'
p15
aS'2015-01-24 11:00:00'
p16
aS'2015-01-24 12:00:00'
p17
aS'2015-01-24 13:00:00'
p18
aS'2015-01-24 14:00:00'
p19
aS'2015-01-24 15:00:00'
p20
aS'2015-01-24 16:00:00'
p21
aS'2015-01-24 17:00:00'
p22
aS'2015-01-24 18:00:00'
p23
aS'2015-01-24 19:00:00'
p24
aS'2015-01-24 20:00:00'
p25
aS'2015-01-24 21:00:00'
p26
aS'2015-01-24 22:00:00'
p27
aS'2015-01-24 23:00:00'
p28
aS'2015-01-25 09:00:00'
p29
aS'2015-01-25 10:00:00'
p30
aS'2015-01-25 11:00:00'
p31
aS'2015-01-25 12:00:00'
p32
aS'2015-01-25 13:00:00'
p33
aS'2015-01-25 14:00:00'
p34
aS'2015-01-25 15:00:00'
p35
aS'2015-01-25 16:00:00'
p36
aS'2015-01-25 17:00:00'
p37
aS'2015-01-25 18:00:00'
p38
aS'2015-01-25 19:00:00'
p39
aS'2015-01-25 20:00:00'
p40
aS'2015-01-25 21:00:00'
p41
aS'2015-01-25 22:00:00'
p42
aS'2015-01-25 23:00:00'
p43
aS'2015-01-26 09:00:00'
p44
aS'2015-01-26 10:00:00'
p45
aS'2015-01-26 11:00:00'
p46
aS'2015-01-26 12:00:00'
p47
aS'2015-01-26 13:00:00'
p48
aS'2015-01-26 14:00:00'
p49
aS'2015-01-26 15:00:00'
p50
aS'2015-01-26 16:00:00'
p51
aS'2015-01-26 17:00:00'
p52
aS'2015-01-26 18:00:00'
p53
aS'2015-01-26 19:00:00'
p54
aS'2015-01-26 20:00:00'
p55
aS'2015-01-26 21:00:00'
p56
aS'2015-01-26 22:00:00'
p57
aS'2015-01-26 23:00:00'
p58
aS'2015-01-27 09:00:00'
p59
aS'2015-01-27 10:00:00'
p60
aS'2015-01-27 11:00:00'
p61
aS'2015-01-27 12:00:00'
p62
aS'2015-01-27 13:00:00'
p63
aS'2015-01-27 14:00:00'
p64
aS'2015-01-27 15:00:00'
p65
aS'2015-01-27 16:00:00'
p66
aS'2015-01-27 17:00:00'
p67
aS'2015-01-27 18:00:00'
p68
aS'2015-01-27 19:00:00'
p69
aS'2015-01-27 20:00:00'
p70
aS'2015-01-27 21:00:00'
p71
aS'2015-01-27 22:00:00'
p72
aS'2015-01-27 23:00:00'
p73
aS'2015-01-29 09:00:00'
p74
aS'2015-01-29 10:00:00'
p75
aS'2015-01-29 11:00:00'
p76
aS'2015-01-29 12:00:00'
p77
aS'2015-01-29 13:00:00'
p78
aS'2015-01-29 14:00:00'
p79
aS'2015-01-29 15:00:00'
p80
aS'2015-01-29 16:00:00'
p81
aS'2015-01-29 17:00:00'
p82
aS'2015-01-29 18:00:00'
p83
aS'2015-01-29 19:00:00'
p84
aS'2015-01-28 09:00:00'
p85
aS'2015-01-28 10:00:00'
p86
aS'2015-01-28 11:00:00'
p87
aS'2015-01-28 12:00:00'
p88
aS'2015-01-28 13:00:00'
p89
aS'2015-01-28 14:00:00'
p90
aS'2015-01-28 15:00:00'
p91
aS'2015-01-28 16:00:00'
p92
aS'2015-01-28 17:00:00'
p93
aS'2015-01-28 18:00:00'
p94
aS'2015-01-28 19:00:00'
p95
aS'2015-01-28 20:00:00'
p96
aS'2015-01-28 21:00:00'
p97
aS'2015-01-28 22:00:00'
p98
aS'2015-01-28 23:00:00'
p99
aS'2015-01-29 20:00:00'
p100
aS'2015-01-29 21:00:00'
p101
aS'2015-01-29 22:00:00'
p102
aS'2015-01-29 23:00:00'
p103
asS'event_type'
p104
S'Anomaly'
p105
sS'url'
p106
(lp107
Vhttp://scontent-b.cdninstagram.com/hphotos-xaf1/t51.2885-15/s150x150/e15/10950613_788716651204238_253468631_n.jpg
p108
aVhttp://scontent-b.cdninstagram.com/hphotos-xaf1/t51.2885-15/s150x150/e15/10946479_856543367741012_1158797744_n.jpg
p109
aVhttp://scontent-a.cdninstagram.com/hphotos-xfa1/t51.2885-15/s150x150/e15/10954406_409437142547630_673312590_n.jpg
p110
aVhttp://scontent-b.cdninstagram.com/hphotos-xfp1/t51.2885-15/s150x150/e15/10518120_594134580688331_1005532363_n.jpg
p111
aVhttp://scontent-a.cdninstagram.com/hphotos-xpa1/t51.2885-15/s150x150/e15/10684066_831895550182541_1823451050_n.jpg
p112
aVhttp://scontent-a.cdninstagram.com/hphotos-xfp1/t51.2885-15/s150x150/e15/10808692_718060618291509_1565371782_n.jpg
p113
aVhttp://scontent-a.cdninstagram.com/hphotos-xaf1/t51.2885-15/s150x150/e15/10895446_889599714428545_676712077_n.jpg
p114
aVhttp://scontent-a.cdninstagram.com/hphotos-xaf1/t51.2885-15/s150x150/e15/10919557_616296721847865_1513156539_n.jpg
p115
aVhttp://scontent-a.cdninstagram.com/hphotos-xfa1/t51.2885-15/s150x150/e15/10948931_989923361035554_1569222964_n.jpg
p116
aVhttp://scontent-b.cdninstagram.com/hphotos-xfa1/t51.2885-15/s150x150/e15/10948844_775227265898033_424718166_n.jpg
p117
aVhttp://scontent-a.cdninstagram.com/hphotos-xaf1/t51.2885-15/s150x150/e15/10949076_394790387348315_695662217_n.jpg
p118
aVhttp://scontent-a.cdninstagram.com/hphotos-xaf1/t51.2885-15/s150x150/e15/10949070_1008452302516827_352644708_n.jpg
p119
aVhttp://scontent-a.cdninstagram.com/hphotos-xaf1/t51.2885-15/s150x150/e15/10899186_1376566542642825_412266430_n.jpg
p120
aVhttp://scontent-a.cdninstagram.com/hphotos-xfa1/t51.2885-15/s150x150/e15/10949090_1541456992801542_1276442365_n.jpg
p121
aVhttp://scontent-a.cdninstagram.com/hphotos-xpf1/t51.2885-15/s150x150/e15/10547327_791366607605026_1773518180_n.jpg
p122
aVhttp://scontent-a.cdninstagram.com/hphotos-xfa1/t51.2885-15/s150x150/e15/10948226_1375904542720151_782405094_n.jpg
p123
aVhttp://scontent-a.cdninstagram.com/hphotos-xaf1/t51.2885-15/s150x150/e15/10958490_807751682640146_1994753120_n.jpg
p124
aVhttp://scontent-b.cdninstagram.com/hphotos-xaf1/t51.2885-15/s150x150/e15/10950520_906675782696972_1512979803_n.jpg
p125
asS'lon'
p126
F-73.992785274
sS'x_h'
p127
(lp128
I14
aI10
aI11
aI12
aI8
aI11
aI4
aI12
aI11
aI12
aI33
aI71
aI23
aI81
aI34
aI2
aI10
aI15
aI13
aI63
aI102
aI46
aI141
aI74
aI31
aI26
aI16
aI8
aI13
aI11
aI4
aI4
aI7
aI9
aI9
aI13
aI17
aI10
aI11
aI8
aI8
aI3
aI2
aI6
aI2
aI8
aI5
aI1
aI2
aI1
aI6
aI6
aI5
aI6
aI6
aI6
aI3
aI1
aI1
aI2
aI2
aI11
aI10
aI13
aI11
aI9
aI8
aI5
aI5
aI7
aI33
aI2
aI4
aI1
aI3
aI2
aI2
aI6
aI2
aI5
aI13
aI54
aI111
aI103
aI0
aI27
aI79
aI54
aI26
aI24
asS'lat'
p129
F40.750526876
sS'name'
p130
S'Madison Square Garden'
p131
ssg1
(g5
S'kE\x1a\x00\x00\x00\x00\x00'
p132
tp133
Rp134
(dp135
g12
(lp136
S'2015-01-24 09:00:00'
p137
aS'2015-01-24 10:00:00'
p138
aS'2015-01-24 11:00:00'
p139
aS'2015-01-24 12:00:00'
p140
aS'2015-01-24 13:00:00'
p141
aS'2015-01-24 14:00:00'
p142
aS'2015-01-24 15:00:00'
p143
aS'2015-01-24 16:00:00'
p144
aS'2015-01-24 17:00:00'
p145
aS'2015-01-24 18:00:00'
p146
aS'2015-01-24 19:00:00'
p147
aS'2015-01-24 20:00:00'
p148
aS'2015-01-24 21:00:00'
p149
aS'2015-01-24 22:00:00'
p150
aS'2015-01-24 23:00:00'
p151
aS'2015-01-25 09:00:00'
p152
aS'2015-01-25 10:00:00'
p153
aS'2015-01-25 11:00:00'
p154
aS'2015-01-25 12:00:00'
p155
aS'2015-01-25 13:00:00'
p156
aS'2015-01-25 14:00:00'
p157
aS'2015-01-25 15:00:00'
p158
aS'2015-01-25 16:00:00'
p159
aS'2015-01-25 17:00:00'
p160
aS'2015-01-25 18:00:00'
p161
aS'2015-01-25 19:00:00'
p162
aS'2015-01-25 20:00:00'
p163
aS'2015-01-25 21:00:00'
p164
aS'2015-01-25 22:00:00'
p165
aS'2015-01-25 23:00:00'
p166
aS'2015-01-26 09:00:00'
p167
aS'2015-01-26 10:00:00'
p168
aS'2015-01-26 11:00:00'
p169
aS'2015-01-26 12:00:00'
p170
aS'2015-01-26 13:00:00'
p171
aS'2015-01-26 14:00:00'
p172
aS'2015-01-26 15:00:00'
p173
aS'2015-01-26 16:00:00'
p174
aS'2015-01-26 17:00:00'
p175
aS'2015-01-26 18:00:00'
p176
aS'2015-01-26 19:00:00'
p177
aS'2015-01-26 20:00:00'
p178
aS'2015-01-26 21:00:00'
p179
aS'2015-01-26 22:00:00'
p180
aS'2015-01-26 23:00:00'
p181
aS'2015-01-27 09:00:00'
p182
aS'2015-01-27 10:00:00'
p183
aS'2015-01-27 11:00:00'
p184
aS'2015-01-27 12:00:00'
p185
aS'2015-01-27 13:00:00'
p186
aS'2015-01-27 14:00:00'
p187
aS'2015-01-27 15:00:00'
p188
aS'2015-01-27 16:00:00'
p189
aS'2015-01-27 17:00:00'
p190
aS'2015-01-27 18:00:00'
p191
aS'2015-01-27 19:00:00'
p192
aS'2015-01-27 20:00:00'
p193
aS'2015-01-27 21:00:00'
p194
aS'2015-01-27 22:00:00'
p195
aS'2015-01-27 23:00:00'
p196
aS'2015-01-29 09:00:00'
p197
aS'2015-01-29 10:00:00'
p198
aS'2015-01-29 11:00:00'
p199
aS'2015-01-29 12:00:00'
p200
aS'2015-01-29 13:00:00'
p201
aS'2015-01-29 14:00:00'
p202
aS'2015-01-29 15:00:00'
p203
aS'2015-01-29 17:00:00'
p204
aS'2015-01-29 18:00:00'
p205
aS'2015-01-29 19:00:00'
p206
aS'2015-01-28 09:00:00'
p207
aS'2015-01-28 10:00:00'
p208
aS'2015-01-28 11:00:00'
p209
aS'2015-01-28 12:00:00'
p210
aS'2015-01-28 13:00:00'
p211
aS'2015-01-28 14:00:00'
p212
aS'2015-01-28 15:00:00'
p213
aS'2015-01-28 16:00:00'
p214
aS'2015-01-28 17:00:00'
p215
aS'2015-01-28 18:00:00'
p216
aS'2015-01-28 19:00:00'
p217
aS'2015-01-28 20:00:00'
p218
aS'2015-01-28 21:00:00'
p219
aS'2015-01-28 22:00:00'
p220
aS'2015-01-28 23:00:00'
p221
aS'2015-01-29 20:00:00'
p222
aS'2015-01-29 21:00:00'
p223
aS'2015-01-29 22:00:00'
p224
aS'2015-01-29 23:00:00'
p225
asg104
g105
sg106
(lp226
Vhttp://scontent-a.cdninstagram.com/hphotos-xaf1/t51.2885-15/s150x150/e15/10945260_986119724749760_943029620_n.jpg
p227
aVhttp://scontent-a.cdninstagram.com/hphotos-xfa1/t51.2885-15/s150x150/e15/10948733_409079882593044_1412216184_n.jpg
p228
aVhttp://scontent-b.cdninstagram.com/hphotos-xfa1/t51.2885-15/s150x150/e15/10932068_769822106429010_1812065116_n.jpg
p229
aVhttp://scontent-b.cdninstagram.com/hphotos-xaf1/t51.2885-15/s150x150/e15/10948680_722515627862632_675040533_n.jpg
p230
aVhttp://scontent-a.cdninstagram.com/hphotos-xfa1/t51.2885-15/s150x150/e15/10919351_371710113001156_209812049_n.jpg
p231
aVhttp://scontent-b.cdninstagram.com/hphotos-xaf1/t51.2885-15/s150x150/e15/10948903_340108819527966_925083415_n.jpg
p232
aVhttp://scontent-a.cdninstagram.com/hphotos-xaf1/t51.2885-15/s150x150/e15/10945257_1686343038259373_1160480056_n.jpg
p233
aVhttp://scontent-a.cdninstagram.com/hphotos-xaf1/t51.2885-15/s150x150/e15/10950312_1546556175628539_422878266_n.jpg
p234
aVhttp://scontent-a.cdninstagram.com/hphotos-xaf1/t51.2885-15/s150x150/e15/10945264_331270143746547_1452166204_n.jpg
p235
aVhttp://scontent-a.cdninstagram.com/hphotos-xpf1/t51.2885-15/s150x150/e15/10518076_528936473912987_737182638_n.jpg
p236
aVhttp://scontent-a.cdninstagram.com/hphotos-xaf1/t51.2885-15/s150x150/e15/1391420_833203660068989_985588767_n.jpg
p237
aVhttp://scontent-b.cdninstagram.com/hphotos-xap1/t51.2885-15/s150x150/e15/924618_1767426366816306_234492474_n.jpg
p238
aVhttp://scontent-b.cdninstagram.com/hphotos-xaf1/t51.2885-15/s150x150/e15/10932484_1428124320813158_529334517_n.jpg
p239
aVhttp://scontent-a.cdninstagram.com/hphotos-xaf1/l/t51.2885-15/s150x150/e15/10956606_1556268534642693_796285174_n.jpg
p240
aVhttp://scontent-b.cdninstagram.com/hphotos-xaf1/t51.2885-15/s150x150/e15/10895472_429288617227712_219298679_n.jpg
p241
aVhttp://scontent-b.cdninstagram.com/hphotos-xaf1/t51.2885-15/s150x150/e15/10958311_432249663591555_932386483_n.jpg
p242
aVhttp://scontent-a.cdninstagram.com/hphotos-xaf1/t51.2885-15/s150x150/e15/10958173_1569725443242794_488694178_n.jpg
p243
aVhttp://scontent-b.cdninstagram.com/hphotos-xaf1/t51.2885-15/s150x150/e15/10954428_1398427247126854_685570548_n.jpg
p244
asg126
F-73.987360392
sg127
(lp245
I1
aI3
aI8
aI10
aI8
aI5
aI2
aI2
aI5
aI11
aI12
aI6
aI4
aI5
aI5
aI2
aI5
aI5
aI8
aI4
aI6
aI10
aI4
aI7
aI1
aI3
aI9
aI10
aI5
aI1
aI0
aI3
aI6
aI3
aI2
aI2
aI2
aI13
aI0
aI2
aI3
aI3
aI1
aI0
aI0
aI0
aI0
aI0
aI2
aI1
aI3
aI3
aI3
aI2
aI1
aI2
aI0
aI1
aI3
aI1
aI2
aI1
aI1
aI1
aI3
aI1
aI1
aI1
aI1
aI1
aI1
aI0
aI0
aI2
aI0
aI0
aI0
aI2
aI2
aI2
aI1
aI6
aI1
aI0
aI4
aI3
aI4
aI4
aI8
asg129
F40.722272516
sg130
S"Katz's Delicatessen"
p246
ssg1
(g5
S'\x8c\xb8\x01\x00\x00\x00\x00\x00'
p247
tp248
Rp249
(dp250
g12
(lp251
S'2015-01-24 09:00:00'
p252
aS'2015-01-24 10:00:00'
p253
aS'2015-01-24 11:00:00'
p254
aS'2015-01-24 12:00:00'
p255
aS'2015-01-24 13:00:00'
p256
aS'2015-01-24 14:00:00'
p257
aS'2015-01-24 15:00:00'
p258
aS'2015-01-24 16:00:00'
p259
aS'2015-01-24 17:00:00'
p260
aS'2015-01-24 18:00:00'
p261
aS'2015-01-24 19:00:00'
p262
aS'2015-01-24 20:00:00'
p263
aS'2015-01-24 21:00:00'
p264
aS'2015-01-24 22:00:00'
p265
aS'2015-01-24 23:00:00'
p266
aS'2015-01-25 09:00:00'
p267
aS'2015-01-25 10:00:00'
p268
aS'2015-01-25 11:00:00'
p269
aS'2015-01-25 12:00:00'
p270
aS'2015-01-25 13:00:00'
p271
aS'2015-01-25 14:00:00'
p272
aS'2015-01-25 15:00:00'
p273
aS'2015-01-25 16:00:00'
p274
aS'2015-01-25 17:00:00'
p275
aS'2015-01-25 18:00:00'
p276
aS'2015-01-25 19:00:00'
p277
aS'2015-01-25 20:00:00'
p278
aS'2015-01-25 21:00:00'
p279
aS'2015-01-25 22:00:00'
p280
aS'2015-01-25 23:00:00'
p281
aS'2015-01-26 09:00:00'
p282
aS'2015-01-26 10:00:00'
p283
aS'2015-01-26 11:00:00'
p284
aS'2015-01-26 12:00:00'
p285
aS'2015-01-26 13:00:00'
p286
aS'2015-01-26 14:00:00'
p287
aS'2015-01-26 15:00:00'
p288
aS'2015-01-26 16:00:00'
p289
aS'2015-01-26 17:00:00'
p290
aS'2015-01-26 18:00:00'
p291
aS'2015-01-26 19:00:00'
p292
aS'2015-01-26 20:00:00'
p293
aS'2015-01-26 21:00:00'
p294
aS'2015-01-26 22:00:00'
p295
aS'2015-01-26 23:00:00'
p296
aS'2015-01-27 09:00:00'
p297
aS'2015-01-27 10:00:00'
p298
aS'2015-01-27 11:00:00'
p299
aS'2015-01-27 12:00:00'
p300
aS'2015-01-27 13:00:00'
p301
aS'2015-01-27 14:00:00'
p302
aS'2015-01-27 15:00:00'
p303
aS'2015-01-27 16:00:00'
p304
aS'2015-01-27 17:00:00'
p305
aS'2015-01-27 18:00:00'
p306
aS'2015-01-27 19:00:00'
p307
aS'2015-01-27 20:00:00'
p308
aS'2015-01-27 21:00:00'
p309
aS'2015-01-27 22:00:00'
p310
aS'2015-01-27 23:00:00'
p311
aS'2015-01-29 10:00:00'
p312
aS'2015-01-29 11:00:00'
p313
aS'2015-01-29 12:00:00'
p314
aS'2015-01-29 14:00:00'
p315
aS'2015-01-29 15:00:00'
p316
aS'2015-01-29 16:00:00'
p317
aS'2015-01-29 18:00:00'
p318
aS'2015-01-29 19:00:00'
p319
aS'2015-01-28 09:00:00'
p320
aS'2015-01-28 10:00:00'
p321
aS'2015-01-28 11:00:00'
p322
aS'2015-01-28 12:00:00'
p323
aS'2015-01-28 13:00:00'
p324
aS'2015-01-28 14:00:00'
p325
aS'2015-01-28 15:00:00'
p326
aS'2015-01-28 16:00:00'
p327
aS'2015-01-28 17:00:00'
p328
aS'2015-01-28 18:00:00'
p329
aS'2015-01-28 19:00:00'
p330
aS'2015-01-28 20:00:00'
p331
aS'2015-01-28 21:00:00'
p332
aS'2015-01-28 22:00:00'
p333
aS'2015-01-28 23:00:00'
p334
aS'2015-01-29 20:00:00'
p335
aS'2015-01-29 21:00:00'
p336
aS'2015-01-29 22:00:00'
p337
aS'2015-01-29 23:00:00'
p338
asg104
g105
sg106
(lp339
Vhttp://scontent-b.cdninstagram.com/hphotos-xfa1/t51.2885-15/s150x150/e15/10946426_391296627705475_503345931_n.jpg
p340
aVhttp://scontent-b.cdninstagram.com/hphotos-xaf1/t51.2885-15/s150x150/e15/10895481_803791449701734_491689503_n.jpg
p341
aVhttp://scontent-b.cdninstagram.com/hphotos-xaf1/t51.2885-15/s150x150/e15/10948930_1549669728636368_2235644_n.jpg
p342
aVhttp://scontent-b.cdninstagram.com/hphotos-xfa1/t51.2885-15/s150x150/e15/10919153_1558537397749937_162956276_n.jpg
p343
aVhttp://scontent-a.cdninstagram.com/hphotos-xaf1/t51.2885-15/s150x150/e15/10956537_1541657102751075_104526475_n.jpg
p344
aVhttp://scontent-a.cdninstagram.com/hphotos-xaf1/t51.2885-15/s150x150/e15/10948759_718367364943360_1240482665_n.jpg
p345
aVhttp://scontent-b.cdninstagram.com/hphotos-xaf1/t51.2885-15/s150x150/e15/10932571_1550342481896592_920255623_n.jpg
p346
aVhttp://scontent-b.cdninstagram.com/hphotos-xaf1/t51.2885-15/s150x150/e15/10957362_354397581410153_215041441_n.jpg
p347
aVhttp://scontent-a.cdninstagram.com/hphotos-xaf1/t51.2885-15/s150x150/e15/10950498_1527356064194917_1716402382_n.jpg
p348
aVhttp://scontent-a.cdninstagram.com/hphotos-xfa1/t51.2885-15/s150x150/e15/10953623_394414450736796_585429837_n.jpg
p349
asg126
F-74.002552516
sg127
(lp350
I0
aI1
aI0
aI0
aI0
aI7
aI1
aI0
aI0
aI2
aI0
aI1
aI0
aI0
aI0
aI1
aI2
aI4
aI1
aI1
aI3
aI0
aI0
aI2
aI3
aI1
aI1
aI0
aI0
aI0
aI0
aI0
aI0
aI0
aI0
aI1
aI1
aI0
aI0
aI0
aI0
aI0
aI0
aI0
aI0
aI0
aI0
aI0
aI0
aI1
aI0
aI0
aI1
aI0
aI1
aI0
aI0
aI0
aI1
aI1
aI1
aI1
aI1
aI2
aI2
aI1
aI1
aI1
aI0
aI0
aI1
aI0
aI0
aI1
aI0
aI1
aI1
aI0
aI1
aI0
aI0
aI0
aI0
aI2
aI2
aI1
aI5
asg129
F40.750087104
sg130
S'Marquee New York'
p351
ssg1
(g5
S'\xef\xce-\x00\x00\x00\x00\x00'
p352
tp353
Rp354
(dp355
g12
(lp356
S'2015-01-24 09:00:00'
p357
aS'2015-01-24 10:00:00'
p358
aS'2015-01-24 11:00:00'
p359
aS'2015-01-24 12:00:00'
p360
aS'2015-01-24 13:00:00'
p361
aS'2015-01-24 14:00:00'
p362
aS'2015-01-24 15:00:00'
p363
aS'2015-01-24 16:00:00'
p364
aS'2015-01-24 17:00:00'
p365
aS'2015-01-24 18:00:00'
p366
aS'2015-01-24 19:00:00'
p367
aS'2015-01-24 20:00:00'
p368
aS'2015-01-24 21:00:00'
p369
aS'2015-01-24 22:00:00'
p370
aS'2015-01-24 23:00:00'
p371
aS'2015-01-25 09:00:00'
p372
aS'2015-01-25 10:00:00'
p373
aS'2015-01-25 11:00:00'
p374
aS'2015-01-25 12:00:00'
p375
aS'2015-01-25 13:00:00'
p376
aS'2015-01-25 14:00:00'
p377
aS'2015-01-25 15:00:00'
p378
aS'2015-01-25 16:00:00'
p379
aS'2015-01-25 17:00:00'
p380
aS'2015-01-25 18:00:00'
p381
aS'2015-01-25 19:00:00'
p382
aS'2015-01-25 20:00:00'
p383
aS'2015-01-25 21:00:00'
p384
aS'2015-01-25 22:00:00'
p385
aS'2015-01-25 23:00:00'
p386
aS'2015-01-26 09:00:00'
p387
aS'2015-01-26 10:00:00'
p388
aS'2015-01-26 11:00:00'
p389
aS'2015-01-26 12:00:00'
p390
aS'2015-01-26 13:00:00'
p391
aS'2015-01-26 14:00:00'
p392
aS'2015-01-26 15:00:00'
p393
aS'2015-01-26 16:00:00'
p394
aS'2015-01-26 17:00:00'
p395
aS'2015-01-26 18:00:00'
p396
aS'2015-01-26 19:00:00'
p397
aS'2015-01-26 20:00:00'
p398
aS'2015-01-26 21:00:00'
p399
aS'2015-01-26 22:00:00'
p400
aS'2015-01-26 23:00:00'
p401
aS'2015-01-27 09:00:00'
p402
aS'2015-01-27 10:00:00'
p403
aS'2015-01-27 11:00:00'
p404
aS'2015-01-27 12:00:00'
p405
aS'2015-01-27 13:00:00'
p406
aS'2015-01-27 14:00:00'
p407
aS'2015-01-27 15:00:00'
p408
aS'2015-01-27 16:00:00'
p409
aS'2015-01-27 17:00:00'
p410
aS'2015-01-27 18:00:00'
p411
aS'2015-01-27 19:00:00'
p412
aS'2015-01-27 20:00:00'
p413
aS'2015-01-27 21:00:00'
p414
aS'2015-01-27 22:00:00'
p415
aS'2015-01-27 23:00:00'
p416
aS'2015-01-29 10:00:00'
p417
aS'2015-01-29 11:00:00'
p418
aS'2015-01-29 12:00:00'
p419
aS'2015-01-29 14:00:00'
p420
aS'2015-01-29 15:00:00'
p421
aS'2015-01-29 16:00:00'
p422
aS'2015-01-29 17:00:00'
p423
aS'2015-01-28 09:00:00'
p424
aS'2015-01-28 10:00:00'
p425
aS'2015-01-28 11:00:00'
p426
aS'2015-01-28 12:00:00'
p427
aS'2015-01-28 13:00:00'
p428
aS'2015-01-28 14:00:00'
p429
aS'2015-01-28 15:00:00'
p430
aS'2015-01-28 16:00:00'
p431
aS'2015-01-28 17:00:00'
p432
aS'2015-01-28 18:00:00'
p433
aS'2015-01-28 19:00:00'
p434
aS'2015-01-28 20:00:00'
p435
aS'2015-01-28 21:00:00'
p436
aS'2015-01-28 22:00:00'
p437
aS'2015-01-28 23:00:00'
p438
aS'2015-01-29 20:00:00'
p439
aS'2015-01-29 21:00:00'
p440
aS'2015-01-29 22:00:00'
p441
aS'2015-01-29 23:00:00'
p442
asg104
g105
sg106
(lp443
Vhttp://scontent-a.cdninstagram.com/hphotos-xaf1/t51.2885-15/s150x150/e15/10903261_1533425410259571_1994599781_n.jpg
p444
aVhttp://scontent-a.cdninstagram.com/hphotos-xap1/t51.2885-15/s150x150/e15/1599003_1626706864224472_708483196_n.jpg
p445
aVhttp://scontent-b.cdninstagram.com/hphotos-xfa1/t51.2885-15/s150x150/e15/10958396_833371120068261_691218566_n.jpg
p446
aVhttp://scontent-a.cdninstagram.com/hphotos-xpa1/t51.2885-15/s150x150/e15/924625_1535389950053504_779213002_n.jpg
p447
aVhttp://scontent-b.cdninstagram.com/hphotos-xfa1/t51.2885-15/s150x150/e15/10932260_851786041547843_146829043_n.jpg
p448
aVhttp://scontent-b.cdninstagram.com/hphotos-xap1/t51.2885-15/s150x150/e15/10611273_1674099519483767_1685967410_n.jpg
p449
aVhttp://scontent-b.cdninstagram.com/hphotos-xaf1/t51.2885-15/s150x150/e15/10919523_1579674342278970_2029672123_n.jpg
p450
aVhttp://scontent-a.cdninstagram.com/hphotos-xpf1/t51.2885-15/s150x150/e15/10547021_808996659173403_385149879_n.jpg
p451
aVhttp://scontent-b.cdninstagram.com/hphotos-xfa1/t51.2885-15/s150x150/e15/10914596_316160495260717_132281080_n.jpg
p452
aVhttp://scontent-b.cdninstagram.com/hphotos-xaf1/t51.2885-15/s150x150/e15/10914175_1545510635704524_894930224_n.jpg
p453
aVhttp://scontent-a.cdninstagram.com/hphotos-xaf1/t51.2885-15/s150x150/e15/10949002_1534148760183876_1465478426_n.jpg
p454
aVhttp://scontent-b.cdninstagram.com/hphotos-xfa1/t51.2885-15/s150x150/e15/10946615_1584543135114556_2065626092_n.jpg
p455
aVhttp://scontent-b.cdninstagram.com/hphotos-xaf1/t51.2885-15/s150x150/e15/10956846_1054690147880749_1178048616_n.jpg
p456
aVhttp://scontent-a.cdninstagram.com/hphotos-xaf1/t51.2885-15/s150x150/e15/10952670_286189671504979_669772237_n.jpg
p457
aVhttp://scontent-a.cdninstagram.com/hphotos-xfa1/t51.2885-15/s150x150/e15/10932248_1538887616393709_1212055885_n.jpg
p458
aVhttp://scontent-a.cdninstagram.com/hphotos-xpa1/t51.2885-15/s150x150/e15/924142_1587597464787338_652717946_n.jpg
p459
aVhttp://scontent-b.cdninstagram.com/hphotos-xaf1/t51.2885-15/s150x150/e15/10957368_886837381360550_11322685_n.jpg
p460
aVhttp://scontent-b.cdninstagram.com/hphotos-xaf1/t51.2885-15/s150x150/e15/10919767_580380082105554_1465126192_n.jpg
p461
asg126
F-73.957547667
sg127
(lp462
I1
aI4
aI5
aI5
aI4
aI9
aI7
aI2
aI14
aI5
aI3
aI2
aI12
aI6
aI10
aI1
aI3
aI3
aI3
aI5
aI7
aI6
aI6
aI7
aI5
aI1
aI9
aI3
aI1
aI1
aI1
aI1
aI1
aI2
aI2
aI3
aI1
aI0
aI0
aI0
aI2
aI0
aI1
aI0
aI1
aI1
aI0
aI2
aI4
aI0
aI2
aI0
aI1
aI1
aI1
aI1
aI1
aI0
aI1
aI1
aI2
aI4
aI2
aI4
aI5
aI3
aI1
aI1
aI1
aI3
aI1
aI1
aI0
aI0
aI1
aI2
aI3
aI0
aI1
aI6
aI0
aI3
aI6
aI2
aI3
aI7
asg129
F40.721954233
sg130
S'Brooklyn Bowl'
p463
ssg1
(g5
S'9D\x00\x00\x00\x00\x00\x00'
p464
tp465
Rp466
(dp467
g12
(lp468
S'2015-01-24 09:00:00'
p469
aS'2015-01-24 10:00:00'
p470
aS'2015-01-24 11:00:00'
p471
aS'2015-01-24 12:00:00'
p472
aS'2015-01-24 13:00:00'
p473
aS'2015-01-24 14:00:00'
p474
aS'2015-01-24 15:00:00'
p475
aS'2015-01-24 16:00:00'
p476
aS'2015-01-24 17:00:00'
p477
aS'2015-01-24 18:00:00'
p478
aS'2015-01-24 19:00:00'
p479
aS'2015-01-24 20:00:00'
p480
aS'2015-01-24 21:00:00'
p481
aS'2015-01-24 22:00:00'
p482
aS'2015-01-24 23:00:00'
p483
aS'2015-01-25 09:00:00'
p484
aS'2015-01-25 10:00:00'
p485
aS'2015-01-25 11:00:00'
p486
aS'2015-01-25 12:00:00'
p487
aS'2015-01-25 13:00:00'
p488
aS'2015-01-25 14:00:00'
p489
aS'2015-01-25 15:00:00'
p490
aS'2015-01-25 16:00:00'
p491
aS'2015-01-25 17:00:00'
p492
aS'2015-01-25 18:00:00'
p493
aS'2015-01-25 19:00:00'
p494
aS'2015-01-25 20:00:00'
p495
aS'2015-01-25 21:00:00'
p496
aS'2015-01-25 22:00:00'
p497
aS'2015-01-25 23:00:00'
p498
aS'2015-01-26 09:00:00'
p499
aS'2015-01-26 10:00:00'
p500
aS'2015-01-26 11:00:00'
p501
aS'2015-01-26 12:00:00'
p502
aS'2015-01-26 13:00:00'
p503
aS'2015-01-26 14:00:00'
p504
aS'2015-01-26 15:00:00'
p505
aS'2015-01-26 16:00:00'
p506
aS'2015-01-26 17:00:00'
p507
aS'2015-01-26 18:00:00'
p508
aS'2015-01-26 19:00:00'
p509
aS'2015-01-26 20:00:00'
p510
aS'2015-01-26 21:00:00'
p511
aS'2015-01-26 22:00:00'
p512
aS'2015-01-26 23:00:00'
p513
aS'2015-01-27 09:00:00'
p514
aS'2015-01-27 10:00:00'
p515
aS'2015-01-27 11:00:00'
p516
aS'2015-01-27 12:00:00'
p517
aS'2015-01-27 13:00:00'
p518
aS'2015-01-27 14:00:00'
p519
aS'2015-01-27 15:00:00'
p520
aS'2015-01-27 16:00:00'
p521
aS'2015-01-27 17:00:00'
p522
aS'2015-01-27 18:00:00'
p523
aS'2015-01-27 19:00:00'
p524
aS'2015-01-27 20:00:00'
p525
aS'2015-01-27 21:00:00'
p526
aS'2015-01-27 22:00:00'
p527
aS'2015-01-27 23:00:00'
p528
aS'2015-01-29 10:00:00'
p529
aS'2015-01-29 14:00:00'
p530
aS'2015-01-29 15:00:00'
p531
aS'2015-01-29 16:00:00'
p532
aS'2015-01-29 17:00:00'
p533
aS'2015-01-29 18:00:00'
p534
aS'2015-01-29 19:00:00'
p535
aS'2015-01-28 09:00:00'
p536
aS'2015-01-28 10:00:00'
p537
aS'2015-01-28 11:00:00'
p538
aS'2015-01-28 12:00:00'
p539
aS'2015-01-28 13:00:00'
p540
aS'2015-01-28 14:00:00'
p541
aS'2015-01-28 15:00:00'
p542
aS'2015-01-28 16:00:00'
p543
aS'2015-01-28 17:00:00'
p544
aS'2015-01-28 18:00:00'
p545
aS'2015-01-28 19:00:00'
p546
aS'2015-01-28 20:00:00'
p547
aS'2015-01-28 21:00:00'
p548
aS'2015-01-28 22:00:00'
p549
aS'2015-01-28 23:00:00'
p550
aS'2015-01-29 21:00:00'
p551
aS'2015-01-29 22:00:00'
p552
aS'2015-01-29 23:00:00'
p553
asg104
g105
sg106
(lp554
Vhttp://scontent-b.cdninstagram.com/hphotos-xfa1/t51.2885-15/s150x150/e15/10946336_313813935484685_689492389_n.jpg
p555
aVhttp://scontent-a.cdninstagram.com/hphotos-xaf1/t51.2885-15/s150x150/e15/10950550_853731078016892_1342873030_n.jpg
p556
aVhttp://scontent-b.cdninstagram.com/hphotos-xfa1/t51.2885-15/s150x150/e15/10950611_709808059137671_216664213_n.jpg
p557
aVhttp://scontent-a.cdninstagram.com/hphotos-xaf1/t51.2885-15/s150x150/e15/10005582_1531248247156504_1370624383_n.jpg
p558
aVhttp://scontent-b.cdninstagram.com/hphotos-xaf1/t51.2885-15/s150x150/e15/10950508_628350697311399_2142383005_n.jpg
p559
aVhttp://scontent-b.cdninstagram.com/hphotos-xaf1/t51.2885-15/s150x150/e15/10895412_1525304907720518_803632534_n.jpg
p560
aVhttp://scontent-a.cdninstagram.com/hphotos-xfa1/t51.2885-15/s150x150/e15/10946525_1561684527413778_1597484332_n.jpg
p561
aVhttp://scontent-b.cdninstagram.com/hphotos-xaf1/t51.2885-15/s150x150/e15/10903402_1583250178556895_480656911_n.jpg
p562
aVhttp://scontent-a.cdninstagram.com/hphotos-xfa1/t51.2885-15/s150x150/e15/10932320_1553301738275516_932650163_n.jpg
p563
aVhttp://scontent-b.cdninstagram.com/hphotos-xfa1/t51.2885-15/s150x150/e15/10953656_317367575129775_732793465_n.jpg
p564
aVhttp://scontent-a.cdninstagram.com/hphotos-xaf1/t51.2885-15/s150x150/e15/10950435_821167287921902_1240978895_n.jpg
p565
aVhttp://scontent-a.cdninstagram.com/hphotos-xaf1/t51.2885-15/s150x150/e15/10959166_1550917568520102_78188966_n.jpg
p566
aVhttp://scontent-a.cdninstagram.com/hphotos-xfa1/t51.2885-15/s150x150/e15/10903331_779589345429359_593471191_n.jpg
p567
aVhttp://scontent-a.cdninstagram.com/hphotos-xaf1/t51.2885-15/s150x150/e15/10946289_249909011846334_480765672_n.jpg
p568
aVhttp://scontent-a.cdninstagram.com/hphotos-xaf1/t51.2885-15/s150x150/e15/10914516_403691523131118_951800908_n.jpg
p569
aVhttp://scontent-b.cdninstagram.com/hphotos-xfa1/t51.2885-15/s150x150/e15/10948784_798497300203327_1047113949_n.jpg
p570
aVhttp://scontent-b.cdninstagram.com/hphotos-xfa1/t51.2885-15/s150x150/e15/10948808_1550723371870494_126828393_n.jpg
p571
aVhttp://scontent-a.cdninstagram.com/hphotos-xfp1/t51.2885-15/s150x150/e15/10471854_367743820074808_805415913_n.jpg
p572
asg126
F-73.965627969
sg127
(lp573
I0
aI1
aI5
aI0
aI2
aI6
aI2
aI3
aI1
aI8
aI3
aI0
aI0
aI0
aI0
aI0
aI1
aI0
aI0
aI1
aI1
aI5
aI1
aI2
aI0
aI0
aI1
aI0
aI0
aI0
aI2
aI2
aI0
aI0
aI0
aI0
aI0
aI1
aI1
aI0
aI0
aI0
aI0
aI0
aI0
aI0
aI2
aI1
aI1
aI0
aI0
aI1
aI0
aI0
aI1
aI1
aI0
aI0
aI1
aI0
aI1
aI2
aI1
aI1
aI1
aI1
aI1
aI1
aI1
aI0
aI0
aI1
aI0
aI0
aI1
aI0
aI1
aI1
aI2
aI1
aI0
aI1
aI6
aI15
aI9
asg129
F40.767282257
sg130
S'Park Avenue Armory'
p574
ssg1
(g5
S'\xef\x05\x00\x00\x00\x00\x00\x00'
p575
tp576
Rp577
(dp578
g12
(lp579
S'2015-01-24 09:00:00'
p580
aS'2015-01-24 10:00:00'
p581
aS'2015-01-24 11:00:00'
p582
aS'2015-01-24 12:00:00'
p583
aS'2015-01-24 13:00:00'
p584
aS'2015-01-24 14:00:00'
p585
aS'2015-01-24 15:00:00'
p586
aS'2015-01-24 16:00:00'
p587
aS'2015-01-24 17:00:00'
p588
aS'2015-01-24 18:00:00'
p589
aS'2015-01-24 19:00:00'
p590
aS'2015-01-24 20:00:00'
p591
aS'2015-01-24 21:00:00'
p592
aS'2015-01-24 22:00:00'
p593
aS'2015-01-24 23:00:00'
p594
aS'2015-01-25 09:00:00'
p595
aS'2015-01-25 10:00:00'
p596
aS'2015-01-25 11:00:00'
p597
aS'2015-01-25 12:00:00'
p598
aS'2015-01-25 13:00:00'
p599
aS'2015-01-25 14:00:00'
p600
aS'2015-01-25 15:00:00'
p601
aS'2015-01-25 16:00:00'
p602
aS'2015-01-25 17:00:00'
p603
aS'2015-01-25 18:00:00'
p604
aS'2015-01-25 19:00:00'
p605
aS'2015-01-25 20:00:00'
p606
aS'2015-01-25 21:00:00'
p607
aS'2015-01-25 22:00:00'
p608
aS'2015-01-25 23:00:00'
p609
aS'2015-01-26 09:00:00'
p610
aS'2015-01-26 10:00:00'
p611
aS'2015-01-26 11:00:00'
p612
aS'2015-01-26 12:00:00'
p613
aS'2015-01-26 13:00:00'
p614
aS'2015-01-26 14:00:00'
p615
aS'2015-01-26 15:00:00'
p616
aS'2015-01-26 16:00:00'
p617
aS'2015-01-26 17:00:00'
p618
aS'2015-01-26 18:00:00'
p619
aS'2015-01-26 19:00:00'
p620
aS'2015-01-26 20:00:00'
p621
aS'2015-01-26 21:00:00'
p622
aS'2015-01-26 22:00:00'
p623
aS'2015-01-26 23:00:00'
p624
aS'2015-01-27 09:00:00'
p625
aS'2015-01-27 10:00:00'
p626
aS'2015-01-27 11:00:00'
p627
aS'2015-01-27 12:00:00'
p628
aS'2015-01-27 13:00:00'
p629
aS'2015-01-27 14:00:00'
p630
aS'2015-01-27 15:00:00'
p631
aS'2015-01-27 16:00:00'
p632
aS'2015-01-27 17:00:00'
p633
aS'2015-01-27 18:00:00'
p634
aS'2015-01-27 19:00:00'
p635
aS'2015-01-27 20:00:00'
p636
aS'2015-01-27 21:00:00'
p637
aS'2015-01-27 22:00:00'
p638
aS'2015-01-27 23:00:00'
p639
aS'2015-01-29 11:00:00'
p640
aS'2015-01-29 13:00:00'
p641
aS'2015-01-29 15:00:00'
p642
aS'2015-01-29 16:00:00'
p643
aS'2015-01-29 17:00:00'
p644
aS'2015-01-29 18:00:00'
p645
aS'2015-01-29 19:00:00'
p646
aS'2015-01-28 09:00:00'
p647
aS'2015-01-28 10:00:00'
p648
aS'2015-01-28 11:00:00'
p649
aS'2015-01-28 12:00:00'
p650
aS'2015-01-28 13:00:00'
p651
aS'2015-01-28 14:00:00'
p652
aS'2015-01-28 15:00:00'
p653
aS'2015-01-28 16:00:00'
p654
aS'2015-01-28 17:00:00'
p655
aS'2015-01-28 18:00:00'
p656
aS'2015-01-28 19:00:00'
p657
aS'2015-01-28 20:00:00'
p658
aS'2015-01-28 21:00:00'
p659
aS'2015-01-28 22:00:00'
p660
aS'2015-01-28 23:00:00'
p661
aS'2015-01-29 20:00:00'
p662
aS'2015-01-29 21:00:00'
p663
aS'2015-01-29 22:00:00'
p664
aS'2015-01-29 23:00:00'
p665
asg104
g105
sg106
(lp666
Vhttp://scontent-b.cdninstagram.com/hphotos-xap1/t51.2885-15/s150x150/e15/10299711_602006449931494_627975198_n.jpg
p667
aVhttp://scontent-b.cdninstagram.com/hphotos-xap1/t51.2885-15/s150x150/e15/10518078_1521875374762028_1142403408_n.jpg
p668
aVhttp://scontent-b.cdninstagram.com/hphotos-xfa1/t51.2885-15/s150x150/e15/10954700_356377554569199_177514584_n.jpg
p669
aVhttp://scontent-b.cdninstagram.com/hphotos-xaf1/t51.2885-15/s150x150/e15/10914522_839880292722351_874854754_n.jpg
p670
aVhttp://scontent-b.cdninstagram.com/hphotos-xpa1/t51.2885-15/s150x150/e15/927377_1590899637808160_921637500_n.jpg
p671
aVhttp://scontent-a.cdninstagram.com/hphotos-xfa1/t51.2885-15/s150x150/e15/10948907_1617199001847867_633438022_n.jpg
p672
aVhttp://scontent-b.cdninstagram.com/hphotos-xaf1/t51.2885-15/s150x150/e15/10950622_567888549981519_863923166_n.jpg
p673
aVhttp://scontent-b.cdninstagram.com/hphotos-xpa1/t51.2885-15/s150x150/e15/10299875_336517186548525_799814843_n.jpg
p674
aVhttp://scontent-a.cdninstagram.com/hphotos-xaf1/t51.2885-15/s150x150/e15/10903350_383733598461115_1123839367_n.jpg
p675
aVhttp://scontent-a.cdninstagram.com/hphotos-xaf1/t51.2885-15/s150x150/e15/10919244_249597045240844_1527757231_n.jpg
p676
aVhttp://scontent-a.cdninstagram.com/hphotos-xfa1/t51.2885-15/s150x150/e15/10948685_1550581311862845_349031617_n.jpg
p677
aVhttp://scontent-b.cdninstagram.com/hphotos-xfa1/t51.2885-15/s150x150/e15/10950485_766097720134230_612415410_n.jpg
p678
aVhttp://scontent-a.cdninstagram.com/hphotos-xaf1/t51.2885-15/s150x150/e15/10950543_1573200972924246_440508458_n.jpg
p679
aVhttp://scontent-a.cdninstagram.com/hphotos-xaf1/t51.2885-15/s150x150/e15/10953643_780182442030858_589716165_n.jpg
p680
aVhttp://scontent-a.cdninstagram.com/hphotos-xaf1/t51.2885-15/s150x150/e15/10948665_370189043167716_1893135667_n.jpg
p681
aVhttp://scontent-b.cdninstagram.com/hphotos-xaf1/t51.2885-15/s150x150/e15/10948290_1405448013089050_19151855_n.jpg
p682
aVhttp://scontent-a.cdninstagram.com/hphotos-xpa1/t51.2885-15/s150x150/e15/10268903_649937498451220_603982462_n.jpg
p683
aVhttp://scontent-b.cdninstagram.com/hphotos-xaf1/t51.2885-15/s150x150/e15/10914097_322789457914434_1980138753_n.jpg
p684
asg126
F-73.992844
sg127
(lp685
I0
aI1
aI5
aI3
aI5
aI16
aI21
aI15
aI21
aI4
aI9
aI9
aI1
aI5
aI4
aI2
aI2
aI6
aI10
aI4
aI16
aI21
aI22
aI12
aI15
aI4
aI5
aI4
aI3
aI5
aI1
aI0
aI3
aI2
aI4
aI3
aI4
aI3
aI1
aI1
aI3
aI1
aI2
aI8
aI1
aI0
aI0
aI2
aI0
aI0
aI2
aI0
aI1
aI0
aI1
aI0
aI4
aI2
aI3
aI1
aI4
aI1
aI3
aI3
aI4
aI4
aI1
aI0
aI0
aI0
aI1
aI4
aI5
aI5
aI4
aI0
aI2
aI1
aI1
aI5
aI0
aI1
aI7
aI9
aI9
aI16
asg129
F40.722337
sg130
S'New Museum'
p686
ssg1
(g5
S'\xbd\xcf-\x00\x00\x00\x00\x00'
p687
tp688
Rp689
(dp690
g12
(lp691
S'2015-01-24 09:00:00'
p692
aS'2015-01-24 10:00:00'
p693
aS'2015-01-24 11:00:00'
p694
aS'2015-01-24 12:00:00'
p695
aS'2015-01-24 13:00:00'
p696
aS'2015-01-24 14:00:00'
p697
aS'2015-01-24 15:00:00'
p698
aS'2015-01-24 16:00:00'
p699
aS'2015-01-24 17:00:00'
p700
aS'2015-01-24 18:00:00'
p701
aS'2015-01-24 19:00:00'
p702
aS'2015-01-24 20:00:00'
p703
aS'2015-01-24 21:00:00'
p704
aS'2015-01-24 22:00:00'
p705
aS'2015-01-24 23:00:00'
p706
aS'2015-01-25 09:00:00'
p707
aS'2015-01-25 10:00:00'
p708
aS'2015-01-25 11:00:00'
p709
aS'2015-01-25 12:00:00'
p710
aS'2015-01-25 13:00:00'
p711
aS'2015-01-25 14:00:00'
p712
aS'2015-01-25 15:00:00'
p713
aS'2015-01-25 16:00:00'
p714
aS'2015-01-25 17:00:00'
p715
aS'2015-01-25 18:00:00'
p716
aS'2015-01-25 19:00:00'
p717
aS'2015-01-25 20:00:00'
p718
aS'2015-01-25 21:00:00'
p719
aS'2015-01-25 22:00:00'
p720
aS'2015-01-25 23:00:00'
p721
aS'2015-01-26 09:00:00'
p722
aS'2015-01-26 10:00:00'
p723
aS'2015-01-26 11:00:00'
p724
aS'2015-01-26 12:00:00'
p725
aS'2015-01-26 13:00:00'
p726
aS'2015-01-26 14:00:00'
p727
aS'2015-01-26 15:00:00'
p728
aS'2015-01-26 16:00:00'
p729
aS'2015-01-26 17:00:00'
p730
aS'2015-01-26 18:00:00'
p731
aS'2015-01-26 19:00:00'
p732
aS'2015-01-26 20:00:00'
p733
aS'2015-01-26 21:00:00'
p734
aS'2015-01-26 22:00:00'
p735
aS'2015-01-26 23:00:00'
p736
aS'2015-01-27 09:00:00'
p737
aS'2015-01-27 10:00:00'
p738
aS'2015-01-27 11:00:00'
p739
aS'2015-01-27 12:00:00'
p740
aS'2015-01-27 13:00:00'
p741
aS'2015-01-27 14:00:00'
p742
aS'2015-01-27 15:00:00'
p743
aS'2015-01-27 16:00:00'
p744
aS'2015-01-27 17:00:00'
p745
aS'2015-01-27 18:00:00'
p746
aS'2015-01-27 19:00:00'
p747
aS'2015-01-27 20:00:00'
p748
aS'2015-01-27 21:00:00'
p749
aS'2015-01-27 22:00:00'
p750
aS'2015-01-27 23:00:00'
p751
aS'2015-01-29 10:00:00'
p752
aS'2015-01-29 11:00:00'
p753
aS'2015-01-29 13:00:00'
p754
aS'2015-01-29 14:00:00'
p755
aS'2015-01-29 15:00:00'
p756
aS'2015-01-29 17:00:00'
p757
aS'2015-01-29 19:00:00'
p758
aS'2015-01-28 09:00:00'
p759
aS'2015-01-28 10:00:00'
p760
aS'2015-01-28 11:00:00'
p761
aS'2015-01-28 12:00:00'
p762
aS'2015-01-28 13:00:00'
p763
aS'2015-01-28 14:00:00'
p764
aS'2015-01-28 15:00:00'
p765
aS'2015-01-28 16:00:00'
p766
aS'2015-01-28 17:00:00'
p767
aS'2015-01-28 18:00:00'
p768
aS'2015-01-28 19:00:00'
p769
aS'2015-01-28 20:00:00'
p770
aS'2015-01-28 21:00:00'
p771
aS'2015-01-28 22:00:00'
p772
aS'2015-01-28 23:00:00'
p773
aS'2015-01-29 20:00:00'
p774
aS'2015-01-29 21:00:00'
p775
aS'2015-01-29 22:00:00'
p776
aS'2015-01-29 23:00:00'
p777
asg104
g105
sg106
(lp778
Vhttp://scontent-a.cdninstagram.com/hphotos-xaf1/t51.2885-15/s150x150/e15/10956567_1010763738952220_173595261_n.jpg
p779
aVhttp://scontent-b.cdninstagram.com/hphotos-xfa1/t51.2885-15/s150x150/e15/10914173_654776147964379_116328856_n.jpg
p780
aVhttp://scontent-a.cdninstagram.com/hphotos-xfa1/t51.2885-15/s150x150/e15/10958282_1713219435570969_938375485_n.jpg
p781
aVhttp://scontent-b.cdninstagram.com/hphotos-xaf1/t51.2885-15/s150x150/e15/10932144_738411012920904_125953634_n.jpg
p782
aVhttp://scontent-b.cdninstagram.com/hphotos-xfa1/t51.2885-15/s150x150/e15/10932239_1534916083442563_696341406_n.jpg
p783
aVhttp://scontent-a.cdninstagram.com/hphotos-xaf1/t51.2885-15/s150x150/e15/10914181_640102102784257_751507302_n.jpg
p784
aVhttp://scontent-b.cdninstagram.com/hphotos-xaf1/t51.2885-15/s150x150/e15/10919529_1571613679746300_26156095_n.jpg
p785
aVhttp://scontent-b.cdninstagram.com/hphotos-xaf1/t51.2885-15/s150x150/e15/10005582_313975618800246_1479652446_n.jpg
p786
aVhttp://scontent-b.cdninstagram.com/hphotos-xaf1/t51.2885-15/s150x150/e15/10945264_816054215096753_873865466_n.jpg
p787
aVhttp://scontent-b.cdninstagram.com/hphotos-xpf1/t51.2885-15/s150x150/e15/10569971_802989219793739_1909375781_n.jpg
p788
asg126
F-73.993537098
sg127
(lp789
I2
aI1
aI6
aI4
aI3
aI10
aI4
aI1
aI6
aI4
aI3
aI2
aI2
aI3
aI11
aI9
aI5
aI6
aI5
aI6
aI4
aI6
aI3
aI3
aI3
aI4
aI1
aI3
aI1
aI2
aI2
aI0
aI1
aI0
aI1
aI0
aI1
aI5
aI1
aI4
aI0
aI1
aI0
aI0
aI4
aI1
aI0
aI1
aI1
aI0
aI1
aI0
aI0
aI0
aI0
aI2
aI1
aI1
aI2
aI0
aI1
aI1
aI1
aI1
aI1
aI1
aI2
aI1
aI0
aI0
aI2
aI0
aI0
aI0
aI0
aI0
aI0
aI1
aI0
aI2
aI0
aI1
aI2
aI2
aI7
aI3
asg129
F40.720370446
sg130
S'The Bowery Ballroom'
p790
ss.