(dp0
cnumpy.core.multiarray
scalar
p1
(cnumpy
dtype
p2
(S'i8'
p3
I0
I1
tp4
Rp5
(I3
S'<'
p6
NNNI-1
I-1
I0
tp7
bS'\xac\xf5\xba\x01\x00\x00\x00\x00'
p8
tp9
Rp10
(dp11
S't_h'
p12
(lp13
S'2015-01-29 10:00:00'
p14
aS'2015-01-29 12:00:00'
p15
aS'2015-01-29 13:00:00'
p16
aS'2015-01-29 14:00:00'
p17
aS'2015-01-29 15:00:00'
p18
aS'2015-01-29 16:00:00'
p19
aS'2015-01-29 18:00:00'
p20
aS'2015-01-29 19:00:00'
p21
aS'2015-01-28 09:00:00'
p22
aS'2015-01-28 10:00:00'
p23
aS'2015-01-28 11:00:00'
p24
aS'2015-01-28 12:00:00'
p25
aS'2015-01-28 13:00:00'
p26
aS'2015-01-28 14:00:00'
p27
aS'2015-01-28 15:00:00'
p28
aS'2015-01-28 16:00:00'
p29
aS'2015-01-28 17:00:00'
p30
aS'2015-01-28 18:00:00'
p31
aS'2015-01-28 19:00:00'
p32
aS'2015-01-28 20:00:00'
p33
aS'2015-01-28 21:00:00'
p34
aS'2015-01-28 22:00:00'
p35
aS'2015-01-28 23:00:00'
p36
aS'2015-01-29 20:00:00'
p37
aS'2015-01-29 22:00:00'
p38
aS'2015-01-30 09:00:00'
p39
aS'2015-01-30 10:00:00'
p40
aS'2015-01-30 11:00:00'
p41
aS'2015-01-30 12:00:00'
p42
aS'2015-01-30 13:00:00'
p43
aS'2015-01-30 14:00:00'
p44
aS'2015-01-30 15:00:00'
p45
aS'2015-01-30 16:00:00'
p46
aS'2015-01-30 17:00:00'
p47
aS'2015-01-30 18:00:00'
p48
aS'2015-01-30 19:00:00'
p49
aS'2015-01-30 20:00:00'
p50
aS'2015-01-30 22:00:00'
p51
aS'2015-01-30 23:00:00'
p52
aS'2015-01-31 09:00:00'
p53
aS'2015-01-31 10:00:00'
p54
aS'2015-01-31 11:00:00'
p55
aS'2015-01-31 12:00:00'
p56
aS'2015-01-31 13:00:00'
p57
aS'2015-01-31 14:00:00'
p58
aS'2015-01-31 15:00:00'
p59
aS'2015-01-31 16:00:00'
p60
aS'2015-01-31 17:00:00'
p61
aS'2015-01-31 18:00:00'
p62
aS'2015-01-31 19:00:00'
p63
aS'2015-01-31 20:00:00'
p64
aS'2015-01-31 21:00:00'
p65
aS'2015-01-31 22:00:00'
p66
aS'2015-01-31 23:00:00'
p67
aS'2015-02-01 09:00:00'
p68
aS'2015-02-01 10:00:00'
p69
aS'2015-02-01 11:00:00'
p70
aS'2015-02-01 12:00:00'
p71
aS'2015-02-01 13:00:00'
p72
aS'2015-02-01 14:00:00'
p73
aS'2015-02-01 15:00:00'
p74
aS'2015-02-01 16:00:00'
p75
aS'2015-02-01 17:00:00'
p76
aS'2015-02-01 18:00:00'
p77
aS'2015-02-01 19:00:00'
p78
aS'2015-02-01 20:00:00'
p79
aS'2015-02-01 21:00:00'
p80
aS'2015-02-01 22:00:00'
p81
aS'2015-02-01 23:00:00'
p82
aS'2015-02-02 09:00:00'
p83
aS'2015-02-02 10:00:00'
p84
aS'2015-02-02 11:00:00'
p85
aS'2015-02-02 12:00:00'
p86
aS'2015-02-02 13:00:00'
p87
aS'2015-02-02 14:00:00'
p88
aS'2015-02-02 15:00:00'
p89
aS'2015-02-02 16:00:00'
p90
aS'2015-02-02 17:00:00'
p91
aS'2015-02-02 18:00:00'
p92
aS'2015-02-02 19:00:00'
p93
aS'2015-02-02 20:00:00'
p94
aS'2015-02-02 21:00:00'
p95
aS'2015-02-02 22:00:00'
p96
aS'2015-02-02 23:00:00'
p97
asS'event_type'
p98
S'Anomaly'
p99
sS'url'
p100
(lp101
Vhttp://scontent-b.cdninstagram.com/hphotos-xfa1/t51.2885-15/s150x150/e15/10946240_810121205700423_993818195_n.jpg
p102
aVhttp://scontent-a.cdninstagram.com/hphotos-xaf1/t51.2885-15/s150x150/e15/10963999_763415397077846_699653032_n.jpg
p103
aVhttp://scontent-b.cdninstagram.com/hphotos-xpa1/t51.2885-15/s150x150/e15/10499134_501078090030220_1422237588_n.jpg
p104
aVhttp://scontent-a.cdninstagram.com/hphotos-xaf1/t51.2885-15/s150x150/e15/10948996_1409638692664226_2024993299_n.jpg
p105
aVhttp://scontent-b.cdninstagram.com/hphotos-xfa1/t51.2885-15/s150x150/e15/10953113_401956003301367_121030613_n.jpg
p106
aVhttp://scontent-a.cdninstagram.com/hphotos-xaf1/t51.2885-15/s150x150/e15/10963810_775807229170494_364541794_n.jpg
p107
aVhttp://scontent-b.cdninstagram.com/hphotos-xfa1/t51.2885-15/s150x150/e15/10964003_522724194535018_124609965_n.jpg
p108
aVhttp://scontent-b.cdninstagram.com/hphotos-xfp1/t51.2885-15/s150x150/e15/10251505_1010435268970913_2049851998_n.jpg
p109
aVhttp://scontent-b.cdninstagram.com/hphotos-xpa1/t51.2885-15/s150x150/e15/924623_1542106336061262_349247456_n.jpg
p110
aVhttp://scontent-a.cdninstagram.com/hphotos-xaf1/t51.2885-15/s150x150/e15/1941114_1529287600693436_264451939_n.jpg
p111
aVhttp://scontent-a.cdninstagram.com/hphotos-xaf1/t51.2885-15/s150x150/e15/10946419_1374382262875594_1714449524_n.jpg
p112
aVhttp://scontent-b.cdninstagram.com/hphotos-xaf1/t51.2885-15/s150x150/e15/10950432_725353977562471_1655276140_n.jpg
p113
aVhttp://scontent-a.cdninstagram.com/hphotos-xfa1/t51.2885-15/s150x150/e15/10903205_1612992535599358_104770737_n.jpg
p114
aVhttp://scontent-b.cdninstagram.com/hphotos-xaf1/t51.2885-15/s150x150/e15/10890673_794011574007202_1642119682_n.jpg
p115
aVhttp://scontent-b.cdninstagram.com/hphotos-xfa1/t51.2885-15/s150x150/e15/10946486_1575449389334561_1893347322_n.jpg
p116
aVhttp://scontent-a.cdninstagram.com/hphotos-xfa1/t51.2885-15/s150x150/e15/10948346_1537324069875664_1290065017_n.jpg
p117
aVhttp://scontent-b.cdninstagram.com/hphotos-xaf1/t51.2885-15/s150x150/e15/10950439_381915328657820_1077969734_n.jpg
p118
aVhttp://scontent-b.cdninstagram.com/hphotos-xaf1/t51.2885-15/s150x150/e15/10731754_763877617031246_132052905_n.jpg
p119
asS'lon'
p120
F-74.001155579
sS'x_h'
p121
(lp122
I1
aI4
aI3
aI3
aI4
aI1
aI3
aI1
aI2
aI0
aI1
aI0
aI0
aI0
aI2
aI0
aI0
aI0
aI0
aI0
aI0
aI0
aI0
aI1
aI1
aI1
aI3
aI3
aI1
aI3
aI3
aI7
aI3
aI6
aI4
aI3
aI3
aI2
aI2
aI4
aI8
aI8
aI9
aI7
aI11
aI10
aI8
aI4
aI7
aI6
aI6
aI2
aI3
aI2
aI12
aI21
aI33
aI28
aI25
aI27
aI27
aI26
aI12
aI17
aI8
aI8
aI5
aI2
aI3
aI4
aI21
aI24
aI22
aI25
aI24
aI18
aI18
aI17
aI17
aI5
aI5
aI2
aI4
aI1
asS'lat'
p123
F40.757594035
sS'name'
p124
S'Javits Center'
p125
ssg1
(g5
S'0\xc6\x1f\x00\x00\x00\x00\x00'
p126
tp127
Rp128
(dp129
g12
(lp130
S'2015-01-29 09:00:00'
p131
aS'2015-01-29 10:00:00'
p132
aS'2015-01-29 11:00:00'
p133
aS'2015-01-29 12:00:00'
p134
aS'2015-01-29 13:00:00'
p135
aS'2015-01-29 14:00:00'
p136
aS'2015-01-29 15:00:00'
p137
aS'2015-01-29 16:00:00'
p138
aS'2015-01-29 17:00:00'
p139
aS'2015-01-29 18:00:00'
p140
aS'2015-01-29 19:00:00'
p141
aS'2015-01-28 09:00:00'
p142
aS'2015-01-28 10:00:00'
p143
aS'2015-01-28 11:00:00'
p144
aS'2015-01-28 12:00:00'
p145
aS'2015-01-28 13:00:00'
p146
aS'2015-01-28 14:00:00'
p147
aS'2015-01-28 15:00:00'
p148
aS'2015-01-28 16:00:00'
p149
aS'2015-01-28 17:00:00'
p150
aS'2015-01-28 18:00:00'
p151
aS'2015-01-28 19:00:00'
p152
aS'2015-01-28 20:00:00'
p153
aS'2015-01-28 21:00:00'
p154
aS'2015-01-28 22:00:00'
p155
aS'2015-01-28 23:00:00'
p156
aS'2015-01-29 20:00:00'
p157
aS'2015-01-29 21:00:00'
p158
aS'2015-01-29 22:00:00'
p159
aS'2015-01-29 23:00:00'
p160
aS'2015-01-30 09:00:00'
p161
aS'2015-01-30 10:00:00'
p162
aS'2015-01-30 11:00:00'
p163
aS'2015-01-30 12:00:00'
p164
aS'2015-01-30 13:00:00'
p165
aS'2015-01-30 14:00:00'
p166
aS'2015-01-30 15:00:00'
p167
aS'2015-01-30 16:00:00'
p168
aS'2015-01-30 17:00:00'
p169
aS'2015-01-30 18:00:00'
p170
aS'2015-01-30 19:00:00'
p171
aS'2015-01-30 20:00:00'
p172
aS'2015-01-30 21:00:00'
p173
aS'2015-01-30 22:00:00'
p174
aS'2015-01-30 23:00:00'
p175
aS'2015-01-31 09:00:00'
p176
aS'2015-01-31 10:00:00'
p177
aS'2015-01-31 11:00:00'
p178
aS'2015-01-31 12:00:00'
p179
aS'2015-01-31 13:00:00'
p180
aS'2015-01-31 14:00:00'
p181
aS'2015-01-31 15:00:00'
p182
aS'2015-01-31 16:00:00'
p183
aS'2015-01-31 17:00:00'
p184
aS'2015-01-31 18:00:00'
p185
aS'2015-01-31 19:00:00'
p186
aS'2015-01-31 20:00:00'
p187
aS'2015-01-31 21:00:00'
p188
aS'2015-01-31 22:00:00'
p189
aS'2015-01-31 23:00:00'
p190
aS'2015-02-01 09:00:00'
p191
aS'2015-02-01 10:00:00'
p192
aS'2015-02-01 11:00:00'
p193
aS'2015-02-01 12:00:00'
p194
aS'2015-02-01 13:00:00'
p195
aS'2015-02-01 14:00:00'
p196
aS'2015-02-01 15:00:00'
p197
aS'2015-02-01 16:00:00'
p198
aS'2015-02-01 17:00:00'
p199
aS'2015-02-01 18:00:00'
p200
aS'2015-02-01 19:00:00'
p201
aS'2015-02-01 20:00:00'
p202
aS'2015-02-01 21:00:00'
p203
aS'2015-02-01 22:00:00'
p204
aS'2015-02-01 23:00:00'
p205
aS'2015-02-02 09:00:00'
p206
aS'2015-02-02 10:00:00'
p207
aS'2015-02-02 11:00:00'
p208
aS'2015-02-02 12:00:00'
p209
aS'2015-02-02 13:00:00'
p210
aS'2015-02-02 14:00:00'
p211
aS'2015-02-02 15:00:00'
p212
aS'2015-02-02 16:00:00'
p213
aS'2015-02-02 17:00:00'
p214
aS'2015-02-02 18:00:00'
p215
aS'2015-02-02 19:00:00'
p216
aS'2015-02-02 20:00:00'
p217
aS'2015-02-02 21:00:00'
p218
aS'2015-02-02 22:00:00'
p219
aS'2015-02-02 23:00:00'
p220
asg98
g99
sg100
(lp221
Vhttp://scontent-a.cdninstagram.com/hphotos-xaf1/t51.2885-15/s150x150/e15/10979518_811194398946448_532353134_n.jpg
p222
aVhttp://scontent-b.cdninstagram.com/hphotos-xaf1/t51.2885-15/s150x150/e15/10948837_1572024429711202_1378918464_n.jpg
p223
aVhttp://scontent-b.cdninstagram.com/hphotos-xpf1/t51.2885-15/s150x150/e15/1527509_426057474217984_1991936723_n.jpg
p224
aVhttp://scontent-b.cdninstagram.com/hphotos-xfa1/t51.2885-15/s150x150/e15/10953740_1568003403445681_990517709_n.jpg
p225
aVhttp://scontent-a.cdninstagram.com/hphotos-xaf1/t51.2885-15/s150x150/e15/10946283_926186197391485_2024508414_n.jpg
p226
aVhttp://scontent-b.cdninstagram.com/hphotos-xaf1/t51.2885-15/s150x150/e15/1724190_918039411570304_105856912_n.jpg
p227
aVhttp://scontent-b.cdninstagram.com/hphotos-xaf1/t51.2885-15/s150x150/e15/10903350_1380679948911079_623391679_n.jpg
p228
aVhttp://scontent-b.cdninstagram.com/hphotos-xaf1/t51.2885-15/s150x150/e15/10979524_602264286576071_216223866_n.jpg
p229
aVhttp://scontent-a.cdninstagram.com/hphotos-xaf1/t51.2885-15/s150x150/e15/10950625_818574958209515_1066170307_n.jpg
p230
aVhttp://scontent-b.cdninstagram.com/hphotos-xaf1/t51.2885-15/s150x150/e15/10895221_1574160649492095_411109806_n.jpg
p231
aVhttp://scontent-b.cdninstagram.com/hphotos-xaf1/t51.2885-15/s150x150/e15/10950379_1002680559760930_1636615783_n.jpg
p232
aVhttp://scontent-a.cdninstagram.com/hphotos-xaf1/t51.2885-15/s150x150/e15/10950627_418371634997075_1721018825_n.jpg
p233
aVhttp://scontent-a.cdninstagram.com/hphotos-xfa1/t51.2885-15/s150x150/e15/10843940_416474775175431_960806047_n.jpg
p234
aVhttp://scontent-a.cdninstagram.com/hphotos-xfa1/t51.2885-15/s150x150/e15/10895189_837175203007114_1751049949_n.jpg
p235
aVhttp://scontent-a.cdninstagram.com/hphotos-xaf1/t51.2885-15/s150x150/e15/10957297_620037948141823_1554359951_n.jpg
p236
aVhttp://scontent-b.cdninstagram.com/hphotos-xaf1/t51.2885-15/s150x150/e15/10946392_922367857796787_1216405351_n.jpg
p237
aVhttp://scontent-a.cdninstagram.com/hphotos-xaf1/t51.2885-15/s150x150/e15/10948929_1417933918499036_1036436870_n.jpg
p238
aVhttp://scontent-b.cdninstagram.com/hphotos-xaf1/t51.2885-15/s150x150/e15/10948729_817138994999830_1213294679_n.jpg
p239
asg120
F-73.992785274
sg121
(lp240
I2
aI11
aI10
aI13
aI11
aI9
aI8
aI5
aI5
aI7
aI33
aI2
aI4
aI1
aI3
aI2
aI2
aI6
aI2
aI5
aI13
aI54
aI111
aI103
aI0
aI27
aI79
aI54
aI26
aI24
aI4
aI4
aI6
aI6
aI5
aI5
aI5
aI7
aI6
aI9
aI5
aI22
aI76
aI81
aI82
aI12
aI18
aI22
aI16
aI31
aI27
aI23
aI13
aI4
aI14
aI38
aI59
aI44
aI42
aI16
aI2
aI3
aI2
aI8
aI17
aI53
aI126
aI113
aI63
aI28
aI12
aI12
aI7
aI7
aI13
aI3
aI5
aI2
aI3
aI3
aI4
aI6
aI7
aI6
aI5
aI15
aI66
aI60
aI41
aI19
asg123
F40.750526876
sg124
S'Madison Square Garden'
p241
ssg1
(g5
S'Q\xca-\x00\x00\x00\x00\x00'
p242
tp243
Rp244
(dp245
g12
(lp246
S'2015-01-29 09:00:00'
p247
aS'2015-01-29 10:00:00'
p248
aS'2015-01-29 11:00:00'
p249
aS'2015-01-29 12:00:00'
p250
aS'2015-01-29 13:00:00'
p251
aS'2015-01-29 14:00:00'
p252
aS'2015-01-29 15:00:00'
p253
aS'2015-01-29 16:00:00'
p254
aS'2015-01-29 17:00:00'
p255
aS'2015-01-29 18:00:00'
p256
aS'2015-01-29 19:00:00'
p257
aS'2015-01-28 09:00:00'
p258
aS'2015-01-28 10:00:00'
p259
aS'2015-01-28 11:00:00'
p260
aS'2015-01-28 12:00:00'
p261
aS'2015-01-28 13:00:00'
p262
aS'2015-01-28 14:00:00'
p263
aS'2015-01-28 15:00:00'
p264
aS'2015-01-28 16:00:00'
p265
aS'2015-01-28 17:00:00'
p266
aS'2015-01-28 18:00:00'
p267
aS'2015-01-28 19:00:00'
p268
aS'2015-01-28 20:00:00'
p269
aS'2015-01-28 21:00:00'
p270
aS'2015-01-28 22:00:00'
p271
aS'2015-01-28 23:00:00'
p272
aS'2015-01-29 20:00:00'
p273
aS'2015-01-29 21:00:00'
p274
aS'2015-01-29 22:00:00'
p275
aS'2015-01-29 23:00:00'
p276
aS'2015-01-30 09:00:00'
p277
aS'2015-01-30 10:00:00'
p278
aS'2015-01-30 11:00:00'
p279
aS'2015-01-30 12:00:00'
p280
aS'2015-01-30 13:00:00'
p281
aS'2015-01-30 14:00:00'
p282
aS'2015-01-30 15:00:00'
p283
aS'2015-01-30 16:00:00'
p284
aS'2015-01-30 17:00:00'
p285
aS'2015-01-30 18:00:00'
p286
aS'2015-01-30 19:00:00'
p287
aS'2015-01-30 20:00:00'
p288
aS'2015-01-30 22:00:00'
p289
aS'2015-01-30 23:00:00'
p290
aS'2015-01-31 09:00:00'
p291
aS'2015-01-31 11:00:00'
p292
aS'2015-01-31 12:00:00'
p293
aS'2015-01-31 13:00:00'
p294
aS'2015-01-31 14:00:00'
p295
aS'2015-01-31 15:00:00'
p296
aS'2015-01-31 16:00:00'
p297
aS'2015-01-31 17:00:00'
p298
aS'2015-01-31 18:00:00'
p299
aS'2015-01-31 19:00:00'
p300
aS'2015-01-31 20:00:00'
p301
aS'2015-01-31 21:00:00'
p302
aS'2015-01-31 22:00:00'
p303
aS'2015-01-31 23:00:00'
p304
aS'2015-02-01 09:00:00'
p305
aS'2015-02-01 10:00:00'
p306
aS'2015-02-01 11:00:00'
p307
aS'2015-02-01 12:00:00'
p308
aS'2015-02-01 13:00:00'
p309
aS'2015-02-01 14:00:00'
p310
aS'2015-02-01 15:00:00'
p311
aS'2015-02-01 16:00:00'
p312
aS'2015-02-01 17:00:00'
p313
aS'2015-02-01 18:00:00'
p314
aS'2015-02-01 19:00:00'
p315
aS'2015-02-01 20:00:00'
p316
aS'2015-02-01 21:00:00'
p317
aS'2015-02-01 22:00:00'
p318
aS'2015-02-01 23:00:00'
p319
aS'2015-02-02 09:00:00'
p320
aS'2015-02-02 10:00:00'
p321
aS'2015-02-02 11:00:00'
p322
aS'2015-02-02 12:00:00'
p323
aS'2015-02-02 13:00:00'
p324
aS'2015-02-02 14:00:00'
p325
aS'2015-02-02 15:00:00'
p326
aS'2015-02-02 16:00:00'
p327
aS'2015-02-02 17:00:00'
p328
aS'2015-02-02 18:00:00'
p329
aS'2015-02-02 19:00:00'
p330
aS'2015-02-02 20:00:00'
p331
aS'2015-02-02 21:00:00'
p332
aS'2015-02-02 22:00:00'
p333
aS'2015-02-02 23:00:00'
p334
asg98
g99
sg100
(lp335
Vhttp://scontent-b.cdninstagram.com/hphotos-xfa1/t51.2885-15/s150x150/e15/10958396_384173221756678_1981639692_n.jpg
p336
aVhttp://scontent-b.cdninstagram.com/hphotos-xpa1/t51.2885-15/s150x150/e15/928930_1388493864793461_1592405363_n.jpg
p337
aVhttp://scontent-b.cdninstagram.com/hphotos-xaf1/t51.2885-15/s150x150/e15/10964022_1584708401743152_938597118_n.jpg
p338
aVhttp://scontent-b.cdninstagram.com/hphotos-xaf1/t51.2885-15/s150x150/e15/10948867_327640467445845_1593017689_n.jpg
p339
aVhttp://scontent-b.cdninstagram.com/hphotos-xaf1/t51.2885-15/s150x150/e15/10946254_1175168542500584_487027238_n.jpg
p340
aVhttp://scontent-b.cdninstagram.com/hphotos-xfa1/t51.2885-15/s150x150/e15/10950641_1376674412645902_861105246_n.jpg
p341
aVhttp://scontent-a.cdninstagram.com/hphotos-xaf1/t51.2885-15/s150x150/e15/10946686_314077298802951_157644471_n.jpg
p342
aVhttp://scontent-a.cdninstagram.com/hphotos-xaf1/t51.2885-15/s150x150/e15/10852848_325516790981363_1718777440_n.jpg
p343
aVhttp://scontent-a.cdninstagram.com/hphotos-xfa1/t51.2885-15/s150x150/e15/10953623_611002755696548_1706857976_n.jpg
p344
aVhttp://scontent-a.cdninstagram.com/hphotos-xfa1/t51.2885-15/s150x150/e15/10948892_777529972333743_138069264_n.jpg
p345
aVhttp://scontent-b.cdninstagram.com/hphotos-xaf1/t51.2885-15/s150x150/e15/10932456_634701843324881_1419343092_n.jpg
p346
aVhttp://scontent-a.cdninstagram.com/hphotos-xfa1/t51.2885-15/s150x150/e15/10952690_745029208925780_355237387_n.jpg
p347
aVhttp://scontent-a.cdninstagram.com/hphotos-xfa1/t51.2885-15/s150x150/e15/10576120_390187201156173_56177379_n.jpg
p348
asg120
F-73.973599394
sg121
(lp349
I1
aI1
aI1
aI4
aI10
aI10
aI5
aI4
aI6
aI4
aI8
aI2
aI1
aI4
aI2
aI5
aI6
aI8
aI6
aI2
aI3
aI2
aI2
aI1
aI0
aI1
aI2
aI2
aI6
aI2
aI1
aI1
aI2
aI6
aI6
aI11
aI12
aI4
aI10
aI5
aI3
aI6
aI2
aI2
aI1
aI3
aI12
aI8
aI7
aI5
aI19
aI13
aI12
aI5
aI6
aI6
aI13
aI1
aI4
aI1
aI1
aI6
aI3
aI9
aI4
aI4
aI19
aI2
aI5
aI4
aI1
aI2
aI4
aI1
aI3
aI3
aI5
aI13
aI4
aI6
aI3
aI10
aI5
aI3
aI1
aI5
aI3
aI4
asg123
F40.781058862
sg124
S'American Museum of Natural History'
p350
ssg1
(g5
S'\xd46\x00\x00\x00\x00\x00\x00'
p351
tp352
Rp353
(dp354
g12
(lp355
S'2015-01-29 09:00:00'
p356
aS'2015-01-29 12:00:00'
p357
aS'2015-01-29 13:00:00'
p358
aS'2015-01-29 14:00:00'
p359
aS'2015-01-29 15:00:00'
p360
aS'2015-01-29 16:00:00'
p361
aS'2015-01-29 17:00:00'
p362
aS'2015-01-29 18:00:00'
p363
aS'2015-01-29 19:00:00'
p364
aS'2015-01-28 09:00:00'
p365
aS'2015-01-28 10:00:00'
p366
aS'2015-01-28 11:00:00'
p367
aS'2015-01-28 12:00:00'
p368
aS'2015-01-28 13:00:00'
p369
aS'2015-01-28 14:00:00'
p370
aS'2015-01-28 15:00:00'
p371
aS'2015-01-28 16:00:00'
p372
aS'2015-01-28 17:00:00'
p373
aS'2015-01-28 18:00:00'
p374
aS'2015-01-28 19:00:00'
p375
aS'2015-01-28 20:00:00'
p376
aS'2015-01-28 21:00:00'
p377
aS'2015-01-28 22:00:00'
p378
aS'2015-01-28 23:00:00'
p379
aS'2015-01-29 21:00:00'
p380
aS'2015-01-29 22:00:00'
p381
aS'2015-01-29 23:00:00'
p382
aS'2015-01-30 11:00:00'
p383
aS'2015-01-30 12:00:00'
p384
aS'2015-01-30 14:00:00'
p385
aS'2015-01-30 15:00:00'
p386
aS'2015-01-30 16:00:00'
p387
aS'2015-01-30 17:00:00'
p388
aS'2015-01-30 18:00:00'
p389
aS'2015-01-30 19:00:00'
p390
aS'2015-01-30 21:00:00'
p391
aS'2015-01-30 22:00:00'
p392
aS'2015-01-30 23:00:00'
p393
aS'2015-01-31 09:00:00'
p394
aS'2015-01-31 10:00:00'
p395
aS'2015-01-31 11:00:00'
p396
aS'2015-01-31 12:00:00'
p397
aS'2015-01-31 13:00:00'
p398
aS'2015-01-31 14:00:00'
p399
aS'2015-01-31 15:00:00'
p400
aS'2015-01-31 16:00:00'
p401
aS'2015-01-31 17:00:00'
p402
aS'2015-01-31 18:00:00'
p403
aS'2015-01-31 19:00:00'
p404
aS'2015-01-31 20:00:00'
p405
aS'2015-01-31 21:00:00'
p406
aS'2015-01-31 22:00:00'
p407
aS'2015-01-31 23:00:00'
p408
aS'2015-02-01 09:00:00'
p409
aS'2015-02-01 11:00:00'
p410
aS'2015-02-01 12:00:00'
p411
aS'2015-02-01 13:00:00'
p412
aS'2015-02-01 14:00:00'
p413
aS'2015-02-01 15:00:00'
p414
aS'2015-02-01 17:00:00'
p415
aS'2015-02-01 18:00:00'
p416
aS'2015-02-01 19:00:00'
p417
aS'2015-02-01 20:00:00'
p418
aS'2015-02-01 21:00:00'
p419
aS'2015-02-01 22:00:00'
p420
aS'2015-02-01 23:00:00'
p421
aS'2015-02-02 10:00:00'
p422
aS'2015-02-02 12:00:00'
p423
aS'2015-02-02 13:00:00'
p424
aS'2015-02-02 15:00:00'
p425
aS'2015-02-02 16:00:00'
p426
aS'2015-02-02 18:00:00'
p427
aS'2015-02-02 19:00:00'
p428
aS'2015-02-02 20:00:00'
p429
aS'2015-02-02 21:00:00'
p430
aS'2015-02-02 22:00:00'
p431
aS'2015-02-02 23:00:00'
p432
asg98
g99
sg100
(lp433
Vhttp://scontent-b.cdninstagram.com/hphotos-xap1/t51.2885-15/s150x150/e15/10724136_828550900544649_95034724_n.jpg
p434
aVhttp://scontent-a.cdninstagram.com/hphotos-xaf1/t51.2885-15/s150x150/e15/10958707_280796632044350_1071757778_n.jpg
p435
aVhttp://scontent-b.cdninstagram.com/hphotos-xfa1/t51.2885-15/s150x150/e15/10950500_348600521998563_1832122505_n.jpg
p436
aVhttp://scontent-b.cdninstagram.com/hphotos-xaf1/t51.2885-15/s150x150/e15/10946254_280003768790474_1709516005_n.jpg
p437
aVhttp://scontent-b.cdninstagram.com/hphotos-xaf1/t51.2885-15/s150x150/e15/10957314_838540306213884_1928207024_n.jpg
p438
aVhttp://scontent-a.cdninstagram.com/hphotos-xaf1/t51.2885-15/s150x150/e15/10958538_415179371990681_1349100677_n.jpg
p439
aVhttp://scontent-a.cdninstagram.com/hphotos-xap1/t51.2885-15/s150x150/e15/10731829_835068166552439_1179374120_n.jpg
p440
aVhttp://scontent-b.cdninstagram.com/hphotos-xpa1/t51.2885-15/s150x150/e15/1538539_766403440079715_1171377517_n.jpg
p441
aVhttp://scontent-a.cdninstagram.com/hphotos-xaf1/t51.2885-15/s150x150/e15/10959097_1539297613005377_80808545_n.jpg
p442
aVhttp://scontent-b.cdninstagram.com/hphotos-xfa1/t51.2885-15/s150x150/e15/1799578_561004744037079_1314549579_n.jpg
p443
aVhttp://scontent-a.cdninstagram.com/hphotos-xaf1/t51.2885-15/s150x150/e15/10953666_741756375938665_1807584470_n.jpg
p444
aVhttp://scontent-a.cdninstagram.com/hphotos-xfa1/t51.2885-15/s150x150/e15/10899158_1562712803997987_858805462_n.jpg
p445
aVhttp://scontent-a.cdninstagram.com/hphotos-xaf1/t51.2885-15/s150x150/e15/10949041_857960044254792_39386606_n.jpg
p446
aVhttp://scontent-b.cdninstagram.com/hphotos-xaf1/t51.2885-15/s150x150/e15/10932150_1399878443649283_2058216315_n.jpg
p447
aVhttp://scontent-a.cdninstagram.com/hphotos-xaf1/t51.2885-15/s150x150/e15/10948980_691333847652294_793280928_n.jpg
p448
aVhttp://scontent-b.cdninstagram.com/hphotos-xap1/t51.2885-15/s150x150/e15/928905_1529879373951923_1705179102_n.jpg
p449
aVhttp://scontent-b.cdninstagram.com/hphotos-xaf1/t51.2885-15/s150x150/e15/10950376_1609224195976762_2083724635_n.jpg
p450
aVhttp://scontent-b.cdninstagram.com/hphotos-xaf1/t51.2885-15/s150x150/e15/10948924_1515391172018977_194750471_n.jpg
p451
asg120
F-73.989576
sg121
(lp452
I2
aI2
aI3
aI2
aI4
aI1
aI2
aI1
aI4
aI0
aI0
aI1
aI0
aI1
aI1
aI1
aI0
aI1
aI1
aI1
aI1
aI3
aI0
aI0
aI4
aI2
aI1
aI1
aI2
aI1
aI1
aI1
aI1
aI1
aI2
aI1
aI1
aI1
aI1
aI2
aI6
aI5
aI8
aI6
aI1
aI6
aI2
aI7
aI1
aI5
aI6
aI3
aI4
aI1
aI4
aI5
aI1
aI1
aI1
aI2
aI3
aI1
aI3
aI2
aI2
aI1
aI1
aI1
aI1
aI2
aI1
aI3
aI4
aI8
aI10
aI10
aI2
asg123
F40.731886
sg124
S'Webster Hall'
p453
ssg1
(g5
S'\xf5\xd2-\x00\x00\x00\x00\x00'
p454
tp455
Rp456
(dp457
g12
(lp458
S'2015-01-29 10:00:00'
p459
aS'2015-01-29 12:00:00'
p460
aS'2015-01-29 13:00:00'
p461
aS'2015-01-29 14:00:00'
p462
aS'2015-01-29 16:00:00'
p463
aS'2015-01-29 18:00:00'
p464
aS'2015-01-29 19:00:00'
p465
aS'2015-01-28 09:00:00'
p466
aS'2015-01-28 10:00:00'
p467
aS'2015-01-28 11:00:00'
p468
aS'2015-01-28 12:00:00'
p469
aS'2015-01-28 13:00:00'
p470
aS'2015-01-28 14:00:00'
p471
aS'2015-01-28 15:00:00'
p472
aS'2015-01-28 16:00:00'
p473
aS'2015-01-28 17:00:00'
p474
aS'2015-01-28 18:00:00'
p475
aS'2015-01-28 19:00:00'
p476
aS'2015-01-28 20:00:00'
p477
aS'2015-01-28 21:00:00'
p478
aS'2015-01-28 22:00:00'
p479
aS'2015-01-28 23:00:00'
p480
aS'2015-01-29 21:00:00'
p481
aS'2015-01-29 22:00:00'
p482
aS'2015-01-29 23:00:00'
p483
aS'2015-01-30 09:00:00'
p484
aS'2015-01-30 11:00:00'
p485
aS'2015-01-30 12:00:00'
p486
aS'2015-01-30 13:00:00'
p487
aS'2015-01-30 14:00:00'
p488
aS'2015-01-30 15:00:00'
p489
aS'2015-01-30 17:00:00'
p490
aS'2015-01-30 18:00:00'
p491
aS'2015-01-30 19:00:00'
p492
aS'2015-01-30 20:00:00'
p493
aS'2015-01-30 23:00:00'
p494
aS'2015-01-31 10:00:00'
p495
aS'2015-01-31 11:00:00'
p496
aS'2015-01-31 13:00:00'
p497
aS'2015-01-31 15:00:00'
p498
aS'2015-01-31 16:00:00'
p499
aS'2015-01-31 17:00:00'
p500
aS'2015-01-31 18:00:00'
p501
aS'2015-01-31 19:00:00'
p502
aS'2015-01-31 20:00:00'
p503
aS'2015-01-31 21:00:00'
p504
aS'2015-01-31 22:00:00'
p505
aS'2015-01-31 23:00:00'
p506
aS'2015-02-01 09:00:00'
p507
aS'2015-02-01 10:00:00'
p508
aS'2015-02-01 11:00:00'
p509
aS'2015-02-01 12:00:00'
p510
aS'2015-02-01 14:00:00'
p511
aS'2015-02-01 15:00:00'
p512
aS'2015-02-01 16:00:00'
p513
aS'2015-02-01 17:00:00'
p514
aS'2015-02-01 18:00:00'
p515
aS'2015-02-01 19:00:00'
p516
aS'2015-02-01 21:00:00'
p517
aS'2015-02-02 11:00:00'
p518
aS'2015-02-02 12:00:00'
p519
aS'2015-02-02 13:00:00'
p520
aS'2015-02-02 14:00:00'
p521
aS'2015-02-02 15:00:00'
p522
aS'2015-02-02 16:00:00'
p523
aS'2015-02-02 17:00:00'
p524
aS'2015-02-02 18:00:00'
p525
aS'2015-02-02 20:00:00'
p526
aS'2015-02-02 21:00:00'
p527
aS'2015-02-02 23:00:00'
p528
asg98
g99
sg100
(lp529
Vhttp://scontent-b.cdninstagram.com/hphotos-xaf1/t51.2885-15/s150x150/e15/10959156_997638043599560_1090462723_n.jpg
p530
aVhttp://scontent-b.cdninstagram.com/hphotos-xaf1/t51.2885-15/s150x150/e15/10950474_1541162452806333_1713385636_n.jpg
p531
aVhttp://scontent-a.cdninstagram.com/hphotos-frc/t51.2885-15/s150x150/e15/10543578_920248911328057_118090409_n.jpg
p532
aVhttp://scontent-b.cdninstagram.com/hphotos-xaf1/t51.2885-15/s150x150/e15/10958425_1670345443192821_2128522269_n.jpg
p533
aVhttp://scontent-b.cdninstagram.com/hphotos-xfp1/t51.2885-15/s150x150/e15/10576087_1589535331283785_1379841616_n.jpg
p534
aVhttp://scontent-b.cdninstagram.com/hphotos-xfa1/t51.2885-15/s150x150/e15/10914113_436323636521705_53226238_n.jpg
p535
aVhttp://scontent-b.cdninstagram.com/hphotos-xaf1/t51.2885-15/s150x150/e15/914502_779264932151142_1079588698_n.jpg
p536
aVhttp://scontent-b.cdninstagram.com/hphotos-xfa1/t51.2885-15/s150x150/e15/10950548_702197149892887_1906246201_n.jpg
p537
aVhttp://scontent-b.cdninstagram.com/hphotos-xfa1/t51.2885-15/s150x150/e15/10964015_330219977189232_124051616_n.jpg
p538
aVhttp://scontent-b.cdninstagram.com/hphotos-xaf1/t51.2885-15/s150x150/e15/10894905_1546603482264132_544736051_n.jpg
p539
asg120
F-73.973529611
sg121
(lp540
I1
aI2
aI1
aI1
aI2
aI2
aI1
aI0
aI0
aI1
aI1
aI0
aI1
aI2
aI0
aI1
aI0
aI0
aI1
aI1
aI0
aI0
aI1
aI1
aI1
aI1
aI1
aI1
aI2
aI1
aI2
aI1
aI1
aI1
aI1
aI2
aI1
aI1
aI1
aI1
aI3
aI2
aI3
aI9
aI9
aI9
aI5
aI7
aI3
aI1
aI3
aI1
aI1
aI3
aI1
aI3
aI1
aI2
aI1
aI4
aI3
aI3
aI2
aI2
aI2
aI3
aI7
aI4
aI2
aI1
asg123
F40.756519322
sg124
S'Waldorf Astoria New York'
p541
ssg1
(g5
S'\xd9\xf4\xbb\x0c\x00\x00\x00\x00'
p542
tp543
Rp544
(dp545
g12
(lp546
S'2015-01-29 10:00:00'
p547
aS'2015-01-29 11:00:00'
p548
aS'2015-01-29 13:00:00'
p549
aS'2015-01-29 16:00:00'
p550
aS'2015-01-29 19:00:00'
p551
aS'2015-01-28 09:00:00'
p552
aS'2015-01-28 10:00:00'
p553
aS'2015-01-28 11:00:00'
p554
aS'2015-01-28 12:00:00'
p555
aS'2015-01-28 13:00:00'
p556
aS'2015-01-28 14:00:00'
p557
aS'2015-01-28 15:00:00'
p558
aS'2015-01-28 16:00:00'
p559
aS'2015-01-28 17:00:00'
p560
aS'2015-01-28 18:00:00'
p561
aS'2015-01-28 19:00:00'
p562
aS'2015-01-28 20:00:00'
p563
aS'2015-01-28 21:00:00'
p564
aS'2015-01-28 22:00:00'
p565
aS'2015-01-28 23:00:00'
p566
aS'2015-01-29 23:00:00'
p567
aS'2015-01-30 09:00:00'
p568
aS'2015-01-30 10:00:00'
p569
aS'2015-01-30 11:00:00'
p570
aS'2015-01-30 14:00:00'
p571
aS'2015-01-30 15:00:00'
p572
aS'2015-01-30 16:00:00'
p573
aS'2015-01-30 18:00:00'
p574
aS'2015-01-30 21:00:00'
p575
aS'2015-01-31 11:00:00'
p576
aS'2015-01-31 15:00:00'
p577
aS'2015-01-31 16:00:00'
p578
aS'2015-01-31 18:00:00'
p579
aS'2015-01-31 21:00:00'
p580
aS'2015-02-01 10:00:00'
p581
aS'2015-02-01 13:00:00'
p582
aS'2015-02-01 16:00:00'
p583
aS'2015-02-01 19:00:00'
p584
aS'2015-02-01 21:00:00'
p585
aS'2015-02-01 22:00:00'
p586
aS'2015-02-02 10:00:00'
p587
aS'2015-02-02 11:00:00'
p588
aS'2015-02-02 12:00:00'
p589
aS'2015-02-02 14:00:00'
p590
aS'2015-02-02 15:00:00'
p591
aS'2015-02-02 16:00:00'
p592
aS'2015-02-02 17:00:00'
p593
aS'2015-02-02 18:00:00'
p594
aS'2015-02-02 19:00:00'
p595
aS'2015-02-02 20:00:00'
p596
aS'2015-02-02 22:00:00'
p597
asg98
g99
sg100
(lp598
Vhttp://scontent-b.cdninstagram.com/hphotos-xfa1/t51.2885-15/s150x150/e15/10946348_782794851806488_1146364677_n.jpg
p599
aVhttp://scontent-a.cdninstagram.com/hphotos-xaf1/t51.2885-15/s150x150/e15/10932279_1558252911083119_2050190399_n.jpg
p600
aVhttp://scontent-b.cdninstagram.com/hphotos-xaf1/t51.2885-15/s150x150/e15/10895343_611089429023880_612561553_n.jpg
p601
aVhttp://scontent-b.cdninstagram.com/hphotos-xfa1/t51.2885-15/s150x150/e15/10894949_1544124452532969_1802884437_n.jpg
p602
aVhttp://scontent-b.cdninstagram.com/hphotos-xaf1/t51.2885-15/s150x150/e15/10957102_728342063929720_57999906_n.jpg
p603
aVhttp://scontent-a.cdninstagram.com/hphotos-xaf1/t51.2885-15/s150x150/e15/10963971_842292105834039_506993411_n.jpg
p604
aVhttp://scontent-a.cdninstagram.com/hphotos-xfa1/t51.2885-15/s150x150/e15/10964024_702340723211928_712742135_n.jpg
p605
aVhttp://scontent-a.cdninstagram.com/hphotos-xpf1/t51.2885-15/s150x150/e15/1941011_639269389533550_226996592_n.jpg
p606
aVhttp://scontent-a.cdninstagram.com/hphotos-xfa1/t51.2885-15/s150x150/e15/10958636_845228065523942_977791459_n.jpg
p607
aVhttp://scontent-a.cdninstagram.com/hphotos-xaf1/t51.2885-15/s150x150/e15/10953024_843523592376429_185330080_n.jpg
p608
asg120
F-73.968882106
sg121
(lp609
I2
aI1
aI1
aI1
aI1
aI2
aI0
aI0
aI1
aI1
aI0
aI1
aI0
aI2
aI3
aI2
aI1
aI1
aI0
aI0
aI1
aI1
aI1
aI1
aI1
aI1
aI2
aI3
aI2
aI1
aI2
aI1
aI2
aI1
aI1
aI1
aI1
aI1
aI3
aI1
aI2
aI1
aI1
aI2
aI8
aI1
aI1
aI2
aI2
aI2
aI1
asg123
F40.764324156
sg124
S'Park Avenue'
p610
ss.