(dp0
cnumpy.core.multiarray
scalar
p1
(cnumpy
dtype
p2
(S'i8'
p3
I0
I1
tp4
Rp5
(I3
S'<'
p6
NNNI-1
I-1
I0
tp7
bS'\xf6\x90\x00\x00\x00\x00\x00\x00'
p8
tp9
Rp10
(dp11
S't_h'
p12
(lp13
S'2015-01-27 09:00:00'
p14
aS'2015-01-27 10:00:00'
p15
aS'2015-01-27 11:00:00'
p16
aS'2015-01-27 12:00:00'
p17
aS'2015-01-27 13:00:00'
p18
aS'2015-01-27 14:00:00'
p19
aS'2015-01-27 15:00:00'
p20
aS'2015-01-27 16:00:00'
p21
aS'2015-01-27 17:00:00'
p22
aS'2015-01-27 18:00:00'
p23
aS'2015-01-27 19:00:00'
p24
aS'2015-01-27 20:00:00'
p25
aS'2015-01-27 21:00:00'
p26
aS'2015-01-27 22:00:00'
p27
aS'2015-01-27 23:00:00'
p28
aS'2015-01-29 10:00:00'
p29
aS'2015-01-29 13:00:00'
p30
aS'2015-01-29 17:00:00'
p31
aS'2015-01-28 09:00:00'
p32
aS'2015-01-28 10:00:00'
p33
aS'2015-01-28 11:00:00'
p34
aS'2015-01-28 12:00:00'
p35
aS'2015-01-28 13:00:00'
p36
aS'2015-01-28 14:00:00'
p37
aS'2015-01-28 15:00:00'
p38
aS'2015-01-28 16:00:00'
p39
aS'2015-01-28 17:00:00'
p40
aS'2015-01-28 18:00:00'
p41
aS'2015-01-28 19:00:00'
p42
aS'2015-01-28 20:00:00'
p43
aS'2015-01-28 21:00:00'
p44
aS'2015-01-28 22:00:00'
p45
aS'2015-01-28 23:00:00'
p46
aS'2015-01-29 20:00:00'
p47
aS'2015-01-29 21:00:00'
p48
aS'2015-01-29 22:00:00'
p49
aS'2015-01-30 10:00:00'
p50
aS'2015-01-30 12:00:00'
p51
aS'2015-01-30 13:00:00'
p52
aS'2015-01-30 14:00:00'
p53
aS'2015-01-30 15:00:00'
p54
aS'2015-01-30 16:00:00'
p55
aS'2015-01-30 17:00:00'
p56
aS'2015-01-30 18:00:00'
p57
aS'2015-01-30 19:00:00'
p58
aS'2015-01-30 20:00:00'
p59
aS'2015-01-30 21:00:00'
p60
aS'2015-01-30 23:00:00'
p61
aS'2015-01-31 11:00:00'
p62
aS'2015-01-31 12:00:00'
p63
aS'2015-01-31 13:00:00'
p64
aS'2015-01-31 14:00:00'
p65
aS'2015-01-31 15:00:00'
p66
aS'2015-01-31 16:00:00'
p67
aS'2015-01-31 17:00:00'
p68
aS'2015-01-31 18:00:00'
p69
aS'2015-01-31 20:00:00'
p70
aS'2015-01-31 22:00:00'
p71
aS'2015-01-31 23:00:00'
p72
aS'2015-02-01 11:00:00'
p73
aS'2015-02-01 14:00:00'
p74
aS'2015-02-01 18:00:00'
p75
aS'2015-02-01 19:00:00'
p76
aS'2015-02-01 23:00:00'
p77
asS'event_type'
p78
S'Anomaly'
p79
sS'url'
p80
(lp81
Vhttp://scontent-a.cdninstagram.com/hphotos-xap1/t51.2885-15/s150x150/e15/10608087_1594390057464848_1306499865_n.jpg
p82
aVhttp://scontent-a.cdninstagram.com/hphotos-xaf1/t51.2885-15/s150x150/e15/10948267_883661958320957_1530186224_n.jpg
p83
aVhttp://scontent-b.cdninstagram.com/hphotos-xfa1/t51.2885-15/s150x150/e15/10895405_1539666449620790_1498872141_n.jpg
p84
aVhttp://scontent-b.cdninstagram.com/hphotos-xaf1/t51.2885-15/s150x150/e15/10963780_757996817641241_1794219730_n.jpg
p85
aVhttp://scontent-a.cdninstagram.com/hphotos-xfa1/t51.2885-15/s150x150/e15/1661570_1607201476181076_1801968771_n.jpg
p86
aVhttp://scontent-b.cdninstagram.com/hphotos-xaf1/t51.2885-15/s150x150/e15/10956621_792257537517887_1938577945_n.jpg
p87
aVhttp://scontent-b.cdninstagram.com/hphotos-xaf1/t51.2885-15/s150x150/e15/10946277_1411360975824840_55193164_n.jpg
p88
aVhttp://scontent-b.cdninstagram.com/hphotos-xfa1/t51.2885-15/s150x150/e15/10895141_1543433722575098_773711971_n.jpg
p89
aVhttp://scontent-b.cdninstagram.com/hphotos-xap1/t51.2885-15/s150x150/e15/927402_1547319868870983_1399013652_n.jpg
p90
aVhttp://scontent-a.cdninstagram.com/hphotos-xap1/t51.2885-15/s150x150/e15/10453965_1550753385195958_1985807773_n.jpg
p91
asS'lon'
p92
F-73.997343
sS'x_h'
p93
(lp94
I0
aI0
aI1
aI0
aI0
aI1
aI0
aI4
aI0
aI0
aI1
aI0
aI0
aI0
aI2
aI2
aI1
aI1
aI0
aI0
aI1
aI1
aI0
aI1
aI1
aI5
aI0
aI1
aI0
aI1
aI0
aI0
aI0
aI2
aI1
aI3
aI1
aI2
aI1
aI1
aI1
aI1
aI1
aI1
aI1
aI1
aI1
aI1
aI1
aI3
aI1
aI2
aI2
aI3
aI6
aI2
aI1
aI1
aI2
aI1
aI1
aI2
aI1
aI1
asS'lat'
p95
F40.763597
sS'name'
p96
S'Pacha NYC'
p97
ssg1
(g5
S'\x04\x8c\x01\x00\x00\x00\x00\x00'
p98
tp99
Rp100
(dp101
g12
(lp102
S'2015-01-27 09:00:00'
p103
aS'2015-01-27 10:00:00'
p104
aS'2015-01-27 11:00:00'
p105
aS'2015-01-27 12:00:00'
p106
aS'2015-01-27 13:00:00'
p107
aS'2015-01-27 14:00:00'
p108
aS'2015-01-27 15:00:00'
p109
aS'2015-01-27 16:00:00'
p110
aS'2015-01-27 17:00:00'
p111
aS'2015-01-27 18:00:00'
p112
aS'2015-01-27 19:00:00'
p113
aS'2015-01-27 20:00:00'
p114
aS'2015-01-27 21:00:00'
p115
aS'2015-01-27 22:00:00'
p116
aS'2015-01-27 23:00:00'
p117
aS'2015-01-29 09:00:00'
p118
aS'2015-01-29 10:00:00'
p119
aS'2015-01-29 11:00:00'
p120
aS'2015-01-29 12:00:00'
p121
aS'2015-01-29 13:00:00'
p122
aS'2015-01-29 14:00:00'
p123
aS'2015-01-29 15:00:00'
p124
aS'2015-01-29 16:00:00'
p125
aS'2015-01-29 18:00:00'
p126
aS'2015-01-29 19:00:00'
p127
aS'2015-01-28 09:00:00'
p128
aS'2015-01-28 10:00:00'
p129
aS'2015-01-28 11:00:00'
p130
aS'2015-01-28 12:00:00'
p131
aS'2015-01-28 13:00:00'
p132
aS'2015-01-28 14:00:00'
p133
aS'2015-01-28 15:00:00'
p134
aS'2015-01-28 16:00:00'
p135
aS'2015-01-28 17:00:00'
p136
aS'2015-01-28 18:00:00'
p137
aS'2015-01-28 19:00:00'
p138
aS'2015-01-28 20:00:00'
p139
aS'2015-01-28 21:00:00'
p140
aS'2015-01-28 22:00:00'
p141
aS'2015-01-28 23:00:00'
p142
aS'2015-01-29 20:00:00'
p143
aS'2015-01-29 21:00:00'
p144
aS'2015-01-29 22:00:00'
p145
aS'2015-01-29 23:00:00'
p146
aS'2015-01-30 09:00:00'
p147
aS'2015-01-30 10:00:00'
p148
aS'2015-01-30 12:00:00'
p149
aS'2015-01-30 13:00:00'
p150
aS'2015-01-30 14:00:00'
p151
aS'2015-01-30 15:00:00'
p152
aS'2015-01-30 16:00:00'
p153
aS'2015-01-30 17:00:00'
p154
aS'2015-01-30 18:00:00'
p155
aS'2015-01-30 19:00:00'
p156
aS'2015-01-30 20:00:00'
p157
aS'2015-01-30 21:00:00'
p158
aS'2015-01-30 22:00:00'
p159
aS'2015-01-30 23:00:00'
p160
aS'2015-01-31 09:00:00'
p161
aS'2015-01-31 10:00:00'
p162
aS'2015-01-31 11:00:00'
p163
aS'2015-01-31 12:00:00'
p164
aS'2015-01-31 13:00:00'
p165
aS'2015-01-31 14:00:00'
p166
aS'2015-01-31 15:00:00'
p167
aS'2015-01-31 16:00:00'
p168
aS'2015-01-31 17:00:00'
p169
aS'2015-01-31 18:00:00'
p170
aS'2015-01-31 19:00:00'
p171
aS'2015-01-31 20:00:00'
p172
aS'2015-01-31 21:00:00'
p173
aS'2015-01-31 22:00:00'
p174
aS'2015-01-31 23:00:00'
p175
aS'2015-02-01 09:00:00'
p176
aS'2015-02-01 10:00:00'
p177
aS'2015-02-01 11:00:00'
p178
aS'2015-02-01 12:00:00'
p179
aS'2015-02-01 13:00:00'
p180
aS'2015-02-01 15:00:00'
p181
aS'2015-02-01 16:00:00'
p182
aS'2015-02-01 17:00:00'
p183
aS'2015-02-01 18:00:00'
p184
aS'2015-02-01 19:00:00'
p185
aS'2015-02-01 20:00:00'
p186
aS'2015-02-01 21:00:00'
p187
aS'2015-02-01 22:00:00'
p188
aS'2015-02-01 23:00:00'
p189
asg78
g79
sg80
(lp190
Vhttp://scontent-b.cdninstagram.com/hphotos-xaf1/t51.2885-15/s150x150/e15/10963804_689670364487399_1315691757_n.jpg
p191
aVhttp://scontent-a.cdninstagram.com/hphotos-xaf1/t51.2885-15/s150x150/e15/10948710_638891499572525_95319436_n.jpg
p192
aVhttp://scontent-a.cdninstagram.com/hphotos-xaf1/t51.2885-15/s150x150/e15/10957374_401405156704608_602900629_n.jpg
p193
aVhttp://scontent-b.cdninstagram.com/hphotos-xfa1/t51.2885-15/s150x150/e15/10950476_640754249363064_292988221_n.jpg
p194
aVhttp://scontent-b.cdninstagram.com/hphotos-xfa1/t51.2885-15/s150x150/e15/10958201_422221177933315_298114286_n.jpg
p195
aVhttp://scontent-a.cdninstagram.com/hphotos-xfa1/t51.2885-15/s150x150/e15/1739562_848441278546629_24038395_n.jpg
p196
aVhttp://scontent-b.cdninstagram.com/hphotos-xaf1/t51.2885-15/s150x150/e15/10895448_1539087926342205_377980588_n.jpg
p197
aVhttp://scontent-a.cdninstagram.com/hphotos-xpa1/t51.2885-15/s150x150/e15/10729226_1574980159414433_491567229_n.jpg
p198
aVhttp://scontent-b.cdninstagram.com/hphotos-xaf1/t51.2885-15/s150x150/e15/10954027_330541367144745_286162525_n.jpg
p199
aVhttp://scontent-a.cdninstagram.com/hphotos-xfa1/t51.2885-15/s150x150/e15/10954406_858625097535941_1423648200_n.jpg
p200
aVhttp://scontent-b.cdninstagram.com/hphotos-xaf1/t51.2885-15/s150x150/e15/10963908_786892058058928_294359694_n.jpg
p201
aVhttp://scontent-b.cdninstagram.com/hphotos-xaf1/t51.2885-15/s150x150/e15/10946670_525828780893480_1633943742_n.jpg
p202
aVhttp://scontent-a.cdninstagram.com/hphotos-xaf1/t51.2885-15/s150x150/e15/10949080_1557641811142671_494508629_n.jpg
p203
aVhttp://scontent-b.cdninstagram.com/hphotos-xfa1/t51.2885-15/s150x150/e15/10957304_579210855549049_171638328_n.jpg
p204
aVhttp://scontent-a.cdninstagram.com/hphotos-xpf1/t51.2885-15/s150x150/e15/10261295_1527986574156132_1577074457_n.jpg
p205
aVhttp://scontent-a.cdninstagram.com/hphotos-xaf1/t51.2885-15/s150x150/e15/10895412_934304553247290_85130464_n.jpg
p206
asg92
F-73.988272867
sg93
(lp207
I2
aI9
aI20
aI4
aI0
aI7
aI5
aI5
aI5
aI10
aI2
aI9
aI4
aI7
aI6
aI3
aI5
aI2
aI2
aI6
aI6
aI3
aI2
aI5
aI7
aI4
aI2
aI0
aI3
aI8
aI1
aI6
aI6
aI3
aI4
aI12
aI8
aI5
aI0
aI5
aI6
aI9
aI9
aI11
aI4
aI3
aI3
aI3
aI2
aI4
aI7
aI5
aI5
aI4
aI10
aI8
aI7
aI9
aI1
aI2
aI6
aI7
aI4
aI6
aI8
aI10
aI5
aI7
aI7
aI16
aI7
aI11
aI14
aI1
aI6
aI2
aI2
aI3
aI8
aI6
aI4
aI6
aI9
aI1
aI15
aI5
aI2
asg95
F40.756865472
sg96
S'Madame Tussauds New York'
p208
ssg1
(g5
S'v\xd1\x8d\x03\x00\x00\x00\x00'
p209
tp210
Rp211
(dp212
g12
(lp213
S'2015-01-27 09:00:00'
p214
aS'2015-01-27 10:00:00'
p215
aS'2015-01-27 11:00:00'
p216
aS'2015-01-27 12:00:00'
p217
aS'2015-01-27 13:00:00'
p218
aS'2015-01-27 14:00:00'
p219
aS'2015-01-27 15:00:00'
p220
aS'2015-01-27 16:00:00'
p221
aS'2015-01-27 17:00:00'
p222
aS'2015-01-27 18:00:00'
p223
aS'2015-01-27 19:00:00'
p224
aS'2015-01-27 20:00:00'
p225
aS'2015-01-27 21:00:00'
p226
aS'2015-01-27 22:00:00'
p227
aS'2015-01-27 23:00:00'
p228
aS'2015-01-29 12:00:00'
p229
aS'2015-01-29 14:00:00'
p230
aS'2015-01-29 16:00:00'
p231
aS'2015-01-29 17:00:00'
p232
aS'2015-01-29 19:00:00'
p233
aS'2015-01-28 09:00:00'
p234
aS'2015-01-28 10:00:00'
p235
aS'2015-01-28 11:00:00'
p236
aS'2015-01-28 12:00:00'
p237
aS'2015-01-28 13:00:00'
p238
aS'2015-01-28 14:00:00'
p239
aS'2015-01-28 15:00:00'
p240
aS'2015-01-28 16:00:00'
p241
aS'2015-01-28 17:00:00'
p242
aS'2015-01-28 18:00:00'
p243
aS'2015-01-28 19:00:00'
p244
aS'2015-01-28 20:00:00'
p245
aS'2015-01-28 21:00:00'
p246
aS'2015-01-28 22:00:00'
p247
aS'2015-01-28 23:00:00'
p248
aS'2015-01-29 21:00:00'
p249
aS'2015-01-29 22:00:00'
p250
aS'2015-01-29 23:00:00'
p251
aS'2015-01-30 09:00:00'
p252
aS'2015-01-30 11:00:00'
p253
aS'2015-01-30 12:00:00'
p254
aS'2015-01-30 13:00:00'
p255
aS'2015-01-30 14:00:00'
p256
aS'2015-01-30 15:00:00'
p257
aS'2015-01-30 16:00:00'
p258
aS'2015-01-30 17:00:00'
p259
aS'2015-01-30 22:00:00'
p260
aS'2015-01-30 23:00:00'
p261
aS'2015-01-31 09:00:00'
p262
aS'2015-01-31 10:00:00'
p263
aS'2015-01-31 12:00:00'
p264
aS'2015-01-31 14:00:00'
p265
aS'2015-01-31 15:00:00'
p266
aS'2015-01-31 16:00:00'
p267
aS'2015-01-31 17:00:00'
p268
aS'2015-01-31 18:00:00'
p269
aS'2015-01-31 19:00:00'
p270
aS'2015-01-31 20:00:00'
p271
aS'2015-01-31 21:00:00'
p272
aS'2015-01-31 22:00:00'
p273
aS'2015-01-31 23:00:00'
p274
aS'2015-02-01 09:00:00'
p275
aS'2015-02-01 10:00:00'
p276
aS'2015-02-01 11:00:00'
p277
aS'2015-02-01 12:00:00'
p278
aS'2015-02-01 13:00:00'
p279
aS'2015-02-01 14:00:00'
p280
aS'2015-02-01 15:00:00'
p281
aS'2015-02-01 18:00:00'
p282
aS'2015-02-01 19:00:00'
p283
aS'2015-02-01 20:00:00'
p284
aS'2015-02-01 21:00:00'
p285
aS'2015-02-01 22:00:00'
p286
aS'2015-02-01 23:00:00'
p287
asg78
g79
sg80
(lp288
Vhttp://scontent-a.cdninstagram.com/hphotos-xpf1/t51.2885-15/s150x150/e15/1889155_324572974406765_104778366_n.jpg
p289
aVhttp://scontent-a.cdninstagram.com/hphotos-xaf1/t51.2885-15/s150x150/e15/10914535_593067797460966_697611894_n.jpg
p290
aVhttp://scontent-a.cdninstagram.com/hphotos-xfa1/t51.2885-15/s150x150/e15/1889253_1548850575386146_1040963063_n.jpg
p291
aVhttp://scontent-a.cdninstagram.com/hphotos-xfa1/t51.2885-15/s150x150/e15/10963976_810790755659556_1755640141_n.jpg
p292
aVhttp://scontent-b.cdninstagram.com/hphotos-xap1/t51.2885-15/s150x150/e15/925560_354130758108200_1322485685_n.jpg
p293
aVhttp://scontent-b.cdninstagram.com/hphotos-xfa1/t51.2885-15/s150x150/e15/10958648_840121216059094_861960655_n.jpg
p294
aVhttp://scontent-b.cdninstagram.com/hphotos-xpa1/t51.2885-15/s150x150/e15/10522832_892762960746667_1435187222_n.jpg
p295
aVhttp://scontent-b.cdninstagram.com/hphotos-xaf1/l/t51.2885-15/s150x150/e15/10860114_621806217919613_2124872286_n.jpg
p296
aVhttp://scontent-a.cdninstagram.com/hphotos-xfa1/t51.2885-15/s150x150/e15/10957313_759163820841689_338291898_n.jpg
p297
aVhttp://scontent-b.cdninstagram.com/hphotos-xaf1/t51.2885-15/s150x150/e15/10963938_1568299593382070_1424567605_n.jpg
p298
aVhttp://scontent-a.cdninstagram.com/hphotos-xap1/t51.2885-15/s150x150/e15/924153_1549079552033894_1930618338_n.jpg
p299
aVhttp://scontent-b.cdninstagram.com/hphotos-xap1/t51.2885-15/s150x150/e15/10729201_766010220133818_1847732906_n.jpg
p300
aVhttp://scontent-a.cdninstagram.com/hphotos-xap1/t51.2885-15/s150x150/e15/928917_1442887892668068_2079165574_n.jpg
p301
aVhttp://scontent-a.cdninstagram.com/hphotos-xpa1/t51.2885-15/s150x150/e15/924041_1559847540922398_1608040145_n.jpg
p302
aVhttp://scontent-a.cdninstagram.com/hphotos-xpa1/t51.2885-15/s150x150/e15/1168496_788987647838757_1250464070_n.jpg
p303
aVhttp://scontent-b.cdninstagram.com/hphotos-xaf1/t51.2885-15/s150x150/e15/10932417_640719029389581_1464924946_n.jpg
p304
aVhttp://scontent-b.cdninstagram.com/hphotos-xpa1/t51.2885-15/s150x150/e15/928922_848342231871789_930052047_n.jpg
p305
aVhttp://scontent-b.cdninstagram.com/hphotos-xfa1/t51.2885-15/s150x150/e15/10945298_637428766385785_247956505_n.jpg
p306
asg92
F-73.9717015
sg93
(lp307
I0
aI1
aI1
aI1
aI0
aI0
aI1
aI2
aI1
aI2
aI1
aI2
aI2
aI0
aI2
aI1
aI3
aI1
aI1
aI1
aI0
aI1
aI0
aI0
aI1
aI1
aI0
aI1
aI0
aI2
aI1
aI2
aI3
aI0
aI1
aI1
aI4
aI2
aI1
aI1
aI2
aI1
aI1
aI1
aI1
aI2
aI4
aI3
aI1
aI1
aI4
aI1
aI1
aI2
aI5
aI5
aI3
aI2
aI6
aI5
aI5
aI1
aI1
aI1
aI2
aI1
aI4
aI3
aI2
aI4
aI4
aI7
aI8
aI5
asg95
F40.762887177
sg96
S'LAVO NYC'
p308
ssg1
(g5
S'Q\xca-\x00\x00\x00\x00\x00'
p309
tp310
Rp311
(dp312
g12
(lp313
S'2015-01-27 09:00:00'
p314
aS'2015-01-27 10:00:00'
p315
aS'2015-01-27 11:00:00'
p316
aS'2015-01-27 12:00:00'
p317
aS'2015-01-27 13:00:00'
p318
aS'2015-01-27 14:00:00'
p319
aS'2015-01-27 15:00:00'
p320
aS'2015-01-27 16:00:00'
p321
aS'2015-01-27 17:00:00'
p322
aS'2015-01-27 18:00:00'
p323
aS'2015-01-27 19:00:00'
p324
aS'2015-01-27 20:00:00'
p325
aS'2015-01-27 21:00:00'
p326
aS'2015-01-27 22:00:00'
p327
aS'2015-01-27 23:00:00'
p328
aS'2015-01-29 09:00:00'
p329
aS'2015-01-29 10:00:00'
p330
aS'2015-01-29 11:00:00'
p331
aS'2015-01-29 12:00:00'
p332
aS'2015-01-29 13:00:00'
p333
aS'2015-01-29 14:00:00'
p334
aS'2015-01-29 15:00:00'
p335
aS'2015-01-29 16:00:00'
p336
aS'2015-01-29 17:00:00'
p337
aS'2015-01-29 18:00:00'
p338
aS'2015-01-29 19:00:00'
p339
aS'2015-01-28 09:00:00'
p340
aS'2015-01-28 10:00:00'
p341
aS'2015-01-28 11:00:00'
p342
aS'2015-01-28 12:00:00'
p343
aS'2015-01-28 13:00:00'
p344
aS'2015-01-28 14:00:00'
p345
aS'2015-01-28 15:00:00'
p346
aS'2015-01-28 16:00:00'
p347
aS'2015-01-28 17:00:00'
p348
aS'2015-01-28 18:00:00'
p349
aS'2015-01-28 19:00:00'
p350
aS'2015-01-28 20:00:00'
p351
aS'2015-01-28 21:00:00'
p352
aS'2015-01-28 22:00:00'
p353
aS'2015-01-28 23:00:00'
p354
aS'2015-01-29 20:00:00'
p355
aS'2015-01-29 21:00:00'
p356
aS'2015-01-29 22:00:00'
p357
aS'2015-01-29 23:00:00'
p358
aS'2015-01-30 09:00:00'
p359
aS'2015-01-30 10:00:00'
p360
aS'2015-01-30 11:00:00'
p361
aS'2015-01-30 12:00:00'
p362
aS'2015-01-30 13:00:00'
p363
aS'2015-01-30 14:00:00'
p364
aS'2015-01-30 15:00:00'
p365
aS'2015-01-30 16:00:00'
p366
aS'2015-01-30 17:00:00'
p367
aS'2015-01-30 18:00:00'
p368
aS'2015-01-30 19:00:00'
p369
aS'2015-01-30 20:00:00'
p370
aS'2015-01-30 22:00:00'
p371
aS'2015-01-30 23:00:00'
p372
aS'2015-01-31 09:00:00'
p373
aS'2015-01-31 11:00:00'
p374
aS'2015-01-31 12:00:00'
p375
aS'2015-01-31 13:00:00'
p376
aS'2015-01-31 14:00:00'
p377
aS'2015-01-31 15:00:00'
p378
aS'2015-01-31 16:00:00'
p379
aS'2015-01-31 17:00:00'
p380
aS'2015-01-31 18:00:00'
p381
aS'2015-01-31 19:00:00'
p382
aS'2015-01-31 20:00:00'
p383
aS'2015-01-31 21:00:00'
p384
aS'2015-01-31 22:00:00'
p385
aS'2015-01-31 23:00:00'
p386
aS'2015-02-01 09:00:00'
p387
aS'2015-02-01 10:00:00'
p388
aS'2015-02-01 11:00:00'
p389
aS'2015-02-01 12:00:00'
p390
aS'2015-02-01 13:00:00'
p391
aS'2015-02-01 14:00:00'
p392
aS'2015-02-01 15:00:00'
p393
aS'2015-02-01 16:00:00'
p394
aS'2015-02-01 17:00:00'
p395
aS'2015-02-01 18:00:00'
p396
aS'2015-02-01 19:00:00'
p397
aS'2015-02-01 20:00:00'
p398
aS'2015-02-01 21:00:00'
p399
aS'2015-02-01 22:00:00'
p400
aS'2015-02-01 23:00:00'
p401
asg78
g79
sg80
(lp402
Vhttp://scontent-a.cdninstagram.com/hphotos-xaf1/t51.2885-15/s150x150/e15/10946365_325743107623469_842274331_n.jpg
p403
aVhttp://scontent-b.cdninstagram.com/hphotos-xaf1/t51.2885-15/s150x150/e15/10950595_328585667341787_366358542_n.jpg
p404
aVhttp://scontent-b.cdninstagram.com/hphotos-xfa1/t51.2885-15/s150x150/e15/10948817_1537001123251182_370113918_n.jpg
p405
aVhttp://scontent-b.cdninstagram.com/hphotos-xfa1/t51.2885-15/s150x150/e15/10963961_460790620734908_164739950_n.jpg
p406
aVhttp://scontent-b.cdninstagram.com/hphotos-xaf1/t51.2885-15/s150x150/e15/10953643_330496710478123_160153626_n.jpg
p407
aVhttp://scontent-a.cdninstagram.com/hphotos-xaf1/t51.2885-15/s150x150/e15/10914547_759332034157985_1947930709_n.jpg
p408
aVhttp://scontent-a.cdninstagram.com/hphotos-xaf1/t51.2885-15/s150x150/e15/10953087_411893352320100_1879939521_n.jpg
p409
aVhttp://scontent-a.cdninstagram.com/hphotos-xaf1/t51.2885-15/s150x150/e15/10963996_347147708813319_1492657762_n.jpg
p410
aVhttp://scontent-a.cdninstagram.com/hphotos-xaf1/t51.2885-15/s150x150/e15/10946566_941228935911016_1482416566_n.jpg
p411
aVhttp://scontent-b.cdninstagram.com/hphotos-xaf1/t51.2885-15/s150x150/e15/10958214_874728972589378_192318519_n.jpg
p412
aVhttp://scontent-a.cdninstagram.com/hphotos-xaf1/t51.2885-15/s150x150/e15/10958134_796337120487260_1091303489_n.jpg
p413
aVhttp://scontent-a.cdninstagram.com/hphotos-xaf1/t51.2885-15/s150x150/e15/10899156_1567007140206334_1224616515_n.jpg
p414
aVhttp://scontent-a.cdninstagram.com/hphotos-xpa1/t51.2885-15/s150x150/e15/10522278_663351510442630_946545115_n.jpg
p415
aVhttp://scontent-a.cdninstagram.com/hphotos-xaf1/t51.2885-15/s150x150/e15/10950348_426362860872574_840168365_n.jpg
p416
aVhttp://scontent-b.cdninstagram.com/hphotos-xaf1/t51.2885-15/s150x150/e15/10932145_907503932593322_221626651_n.jpg
p417
aVhttp://scontent-b.cdninstagram.com/hphotos-xfa1/t51.2885-15/s150x150/e15/10957283_760382824058251_1642343502_n.jpg
p418
aVhttp://scontent-b.cdninstagram.com/hphotos-xaf1/t51.2885-15/s150x150/e15/10963836_1031237950239207_876388862_n.jpg
p419
aVhttp://scontent-a.cdninstagram.com/hphotos-xfa1/t51.2885-15/s150x150/e15/10946396_417202775114613_1897030758_n.jpg
p420
asg92
F-73.973599394
sg93
(lp421
I1
aI2
aI4
aI1
aI1
aI2
aI1
aI0
aI2
aI1
aI8
aI2
aI7
aI3
aI3
aI1
aI1
aI1
aI4
aI10
aI10
aI5
aI4
aI6
aI4
aI8
aI2
aI1
aI4
aI2
aI5
aI6
aI8
aI6
aI2
aI3
aI2
aI2
aI1
aI0
aI1
aI2
aI2
aI6
aI2
aI1
aI1
aI2
aI6
aI6
aI11
aI12
aI4
aI10
aI5
aI3
aI6
aI2
aI2
aI1
aI3
aI12
aI8
aI7
aI5
aI19
aI13
aI12
aI5
aI6
aI6
aI13
aI1
aI4
aI1
aI1
aI6
aI3
aI9
aI4
aI4
aI19
aI2
aI5
aI4
aI1
aI2
aI4
asg95
F40.781058862
sg96
S'American Museum of Natural History'
p422
ssg1
(g5
S'\x8c\xb8\x01\x00\x00\x00\x00\x00'
p423
tp424
Rp425
(dp426
g12
(lp427
S'2015-01-27 09:00:00'
p428
aS'2015-01-27 10:00:00'
p429
aS'2015-01-27 11:00:00'
p430
aS'2015-01-27 12:00:00'
p431
aS'2015-01-27 13:00:00'
p432
aS'2015-01-27 14:00:00'
p433
aS'2015-01-27 15:00:00'
p434
aS'2015-01-27 16:00:00'
p435
aS'2015-01-27 17:00:00'
p436
aS'2015-01-27 18:00:00'
p437
aS'2015-01-27 19:00:00'
p438
aS'2015-01-27 20:00:00'
p439
aS'2015-01-27 21:00:00'
p440
aS'2015-01-27 22:00:00'
p441
aS'2015-01-27 23:00:00'
p442
aS'2015-01-29 10:00:00'
p443
aS'2015-01-29 11:00:00'
p444
aS'2015-01-29 12:00:00'
p445
aS'2015-01-29 14:00:00'
p446
aS'2015-01-29 15:00:00'
p447
aS'2015-01-29 16:00:00'
p448
aS'2015-01-29 18:00:00'
p449
aS'2015-01-29 19:00:00'
p450
aS'2015-01-28 09:00:00'
p451
aS'2015-01-28 10:00:00'
p452
aS'2015-01-28 11:00:00'
p453
aS'2015-01-28 12:00:00'
p454
aS'2015-01-28 13:00:00'
p455
aS'2015-01-28 14:00:00'
p456
aS'2015-01-28 15:00:00'
p457
aS'2015-01-28 16:00:00'
p458
aS'2015-01-28 17:00:00'
p459
aS'2015-01-28 18:00:00'
p460
aS'2015-01-28 19:00:00'
p461
aS'2015-01-28 20:00:00'
p462
aS'2015-01-28 21:00:00'
p463
aS'2015-01-28 22:00:00'
p464
aS'2015-01-28 23:00:00'
p465
aS'2015-01-29 20:00:00'
p466
aS'2015-01-29 21:00:00'
p467
aS'2015-01-29 22:00:00'
p468
aS'2015-01-29 23:00:00'
p469
aS'2015-01-30 09:00:00'
p470
aS'2015-01-30 10:00:00'
p471
aS'2015-01-30 11:00:00'
p472
aS'2015-01-30 12:00:00'
p473
aS'2015-01-30 13:00:00'
p474
aS'2015-01-30 15:00:00'
p475
aS'2015-01-30 16:00:00'
p476
aS'2015-01-30 17:00:00'
p477
aS'2015-01-30 18:00:00'
p478
aS'2015-01-30 19:00:00'
p479
aS'2015-01-30 20:00:00'
p480
aS'2015-01-30 21:00:00'
p481
aS'2015-01-30 22:00:00'
p482
aS'2015-01-30 23:00:00'
p483
aS'2015-01-31 09:00:00'
p484
aS'2015-01-31 10:00:00'
p485
aS'2015-01-31 11:00:00'
p486
aS'2015-01-31 12:00:00'
p487
aS'2015-01-31 13:00:00'
p488
aS'2015-01-31 14:00:00'
p489
aS'2015-01-31 15:00:00'
p490
aS'2015-01-31 16:00:00'
p491
aS'2015-01-31 17:00:00'
p492
aS'2015-01-31 18:00:00'
p493
aS'2015-01-31 19:00:00'
p494
aS'2015-01-31 22:00:00'
p495
aS'2015-02-01 09:00:00'
p496
aS'2015-02-01 11:00:00'
p497
aS'2015-02-01 12:00:00'
p498
aS'2015-02-01 13:00:00'
p499
aS'2015-02-01 14:00:00'
p500
aS'2015-02-01 15:00:00'
p501
aS'2015-02-01 16:00:00'
p502
aS'2015-02-01 18:00:00'
p503
aS'2015-02-01 20:00:00'
p504
aS'2015-02-01 21:00:00'
p505
aS'2015-02-01 22:00:00'
p506
aS'2015-02-01 23:00:00'
p507
asg78
g79
sg80
(lp508
Vhttp://scontent-a.cdninstagram.com/hphotos-xaf1/t51.2885-15/s150x150/e15/914445_687770791332023_1943202095_n.jpg
p509
aVhttp://scontent-b.cdninstagram.com/hphotos-xaf1/t51.2885-15/s150x150/e15/10948872_796590850434797_1725860290_n.jpg
p510
aVhttp://scontent-b.cdninstagram.com/hphotos-xfa1/t51.2885-15/s150x150/e15/10950311_1540767166177244_852119543_n.jpg
p511
aVhttp://scontent-a.cdninstagram.com/hphotos-xfa1/t51.2885-15/s150x150/e15/10731815_1085543794804339_1793771940_n.jpg
p512
aVhttp://scontent-b.cdninstagram.com/hphotos-xaf1/t51.2885-15/s150x150/e15/10963941_395767480583634_599234620_n.jpg
p513
aVhttp://scontent-b.cdninstagram.com/hphotos-xfa1/t51.2885-15/s150x150/e15/10958429_1576559552559893_677739471_n.jpg
p514
aVhttp://scontent-b.cdninstagram.com/hphotos-xaf1/t51.2885-15/s150x150/e15/10895254_1527098404244990_1392955335_n.jpg
p515
aVhttp://scontent-a.cdninstagram.com/hphotos-xaf1/t51.2885-15/s150x150/e15/10903317_357859941073152_907494965_n.jpg
p516
aVhttp://scontent-a.cdninstagram.com/hphotos-xaf1/t51.2885-15/s150x150/e15/10959106_1581105658773464_1044658757_n.jpg
p517
aVhttp://scontent-b.cdninstagram.com/hphotos-xap1/t51.2885-15/s150x150/e15/924039_1623534041209355_35660841_n.jpg
p518
aVhttp://scontent-a.cdninstagram.com/hphotos-xfa1/t51.2885-15/s150x150/e15/10895405_427276144098416_618395983_n.jpg
p519
aVhttp://scontent-b.cdninstagram.com/hphotos-xaf1/t51.2885-15/s150x150/e15/10949061_337500266443128_1049398931_n.jpg
p520
aVhttp://scontent-b.cdninstagram.com/hphotos-xaf1/t51.2885-15/s150x150/e15/914445_872726122770398_301356278_n.jpg
p521
asg92
F-74.002552516
sg93
(lp522
I0
aI0
aI0
aI0
aI1
aI0
aI0
aI1
aI0
aI1
aI0
aI0
aI0
aI1
aI1
aI1
aI1
aI1
aI2
aI2
aI1
aI1
aI1
aI0
aI0
aI1
aI0
aI0
aI1
aI0
aI1
aI1
aI0
aI1
aI0
aI0
aI0
aI0
aI2
aI2
aI1
aI5
aI2
aI1
aI3
aI4
aI2
aI1
aI4
aI3
aI3
aI3
aI2
aI3
aI3
aI2
aI1
aI1
aI1
aI3
aI2
aI3
aI4
aI6
aI4
aI5
aI3
aI3
aI1
aI1
aI2
aI2
aI2
aI1
aI1
aI1
aI1
aI1
aI1
aI2
asg95
F40.750087104
sg96
S'Marquee New York'
p523
ssg1
(g5
S'\xd46\x00\x00\x00\x00\x00\x00'
p524
tp525
Rp526
(dp527
g12
(lp528
S'2015-01-27 09:00:00'
p529
aS'2015-01-27 10:00:00'
p530
aS'2015-01-27 11:00:00'
p531
aS'2015-01-27 12:00:00'
p532
aS'2015-01-27 13:00:00'
p533
aS'2015-01-27 14:00:00'
p534
aS'2015-01-27 15:00:00'
p535
aS'2015-01-27 16:00:00'
p536
aS'2015-01-27 17:00:00'
p537
aS'2015-01-27 18:00:00'
p538
aS'2015-01-27 19:00:00'
p539
aS'2015-01-27 20:00:00'
p540
aS'2015-01-27 21:00:00'
p541
aS'2015-01-27 22:00:00'
p542
aS'2015-01-27 23:00:00'
p543
aS'2015-01-29 09:00:00'
p544
aS'2015-01-29 12:00:00'
p545
aS'2015-01-29 13:00:00'
p546
aS'2015-01-29 14:00:00'
p547
aS'2015-01-29 15:00:00'
p548
aS'2015-01-29 16:00:00'
p549
aS'2015-01-29 17:00:00'
p550
aS'2015-01-29 18:00:00'
p551
aS'2015-01-29 19:00:00'
p552
aS'2015-01-28 09:00:00'
p553
aS'2015-01-28 10:00:00'
p554
aS'2015-01-28 11:00:00'
p555
aS'2015-01-28 12:00:00'
p556
aS'2015-01-28 13:00:00'
p557
aS'2015-01-28 14:00:00'
p558
aS'2015-01-28 15:00:00'
p559
aS'2015-01-28 16:00:00'
p560
aS'2015-01-28 17:00:00'
p561
aS'2015-01-28 18:00:00'
p562
aS'2015-01-28 19:00:00'
p563
aS'2015-01-28 20:00:00'
p564
aS'2015-01-28 21:00:00'
p565
aS'2015-01-28 22:00:00'
p566
aS'2015-01-28 23:00:00'
p567
aS'2015-01-29 21:00:00'
p568
aS'2015-01-29 22:00:00'
p569
aS'2015-01-29 23:00:00'
p570
aS'2015-01-30 11:00:00'
p571
aS'2015-01-30 12:00:00'
p572
aS'2015-01-30 14:00:00'
p573
aS'2015-01-30 15:00:00'
p574
aS'2015-01-30 16:00:00'
p575
aS'2015-01-30 17:00:00'
p576
aS'2015-01-30 18:00:00'
p577
aS'2015-01-30 19:00:00'
p578
aS'2015-01-30 21:00:00'
p579
aS'2015-01-30 22:00:00'
p580
aS'2015-01-30 23:00:00'
p581
aS'2015-01-31 09:00:00'
p582
aS'2015-01-31 10:00:00'
p583
aS'2015-01-31 11:00:00'
p584
aS'2015-01-31 12:00:00'
p585
aS'2015-01-31 13:00:00'
p586
aS'2015-01-31 14:00:00'
p587
aS'2015-01-31 15:00:00'
p588
aS'2015-01-31 16:00:00'
p589
aS'2015-01-31 17:00:00'
p590
aS'2015-01-31 18:00:00'
p591
aS'2015-01-31 19:00:00'
p592
aS'2015-01-31 20:00:00'
p593
aS'2015-01-31 21:00:00'
p594
aS'2015-01-31 22:00:00'
p595
aS'2015-01-31 23:00:00'
p596
aS'2015-02-01 09:00:00'
p597
aS'2015-02-01 11:00:00'
p598
aS'2015-02-01 12:00:00'
p599
aS'2015-02-01 13:00:00'
p600
aS'2015-02-01 14:00:00'
p601
aS'2015-02-01 15:00:00'
p602
aS'2015-02-01 17:00:00'
p603
aS'2015-02-01 18:00:00'
p604
aS'2015-02-01 19:00:00'
p605
aS'2015-02-01 20:00:00'
p606
aS'2015-02-01 21:00:00'
p607
aS'2015-02-01 22:00:00'
p608
aS'2015-02-01 23:00:00'
p609
asg78
g79
sg80
(lp610
Vhttp://scontent-b.cdninstagram.com/hphotos-xfa1/t51.2885-15/s150x150/e15/10948826_1603640016535445_1738006655_n.jpg
p611
aVhttp://scontent-b.cdninstagram.com/hphotos-xap1/t51.2885-15/s150x150/e15/10727542_1554246804846325_1684159559_n.jpg
p612
aVhttp://scontent-a.cdninstagram.com/hphotos-xaf1/t51.2885-15/s150x150/e15/10932348_1378342755809997_758961668_n.jpg
p613
aVhttp://scontent-b.cdninstagram.com/hphotos-xaf1/t51.2885-15/s150x150/e15/10953009_924014024275395_1643083369_n.jpg
p614
aVhttp://scontent-b.cdninstagram.com/hphotos-xaf1/t51.2885-15/s150x150/e15/10949052_1544645355797823_260675001_n.jpg
p615
aVhttp://scontent-b.cdninstagram.com/hphotos-xfa1/t51.2885-15/s150x150/e15/10953668_419345994908320_1079627436_n.jpg
p616
aVhttp://scontent-a.cdninstagram.com/hphotos-xfa1/t51.2885-15/s150x150/e15/10950629_1071414856217562_177626134_n.jpg
p617
aVhttp://scontent-a.cdninstagram.com/hphotos-xap1/t51.2885-15/s150x150/e15/10576077_796524260429414_1728279332_n.jpg
p618
aVhttp://scontent-a.cdninstagram.com/hphotos-xfa1/t51.2885-15/s150x150/e15/10865003_845881688839105_687652541_n.jpg
p619
aVhttp://scontent-b.cdninstagram.com/hphotos-xaf1/t51.2885-15/s150x150/e15/10948837_633257463468546_1212103651_n.jpg
p620
aVhttp://scontent-a.cdninstagram.com/hphotos-xfa1/t51.2885-15/s150x150/e15/10948745_599479546820083_1312366282_n.jpg
p621
aVhttp://scontent-b.cdninstagram.com/hphotos-xaf1/t51.2885-15/s150x150/e15/10949080_792399624163866_233196543_n.jpg
p622
aVhttp://scontent-a.cdninstagram.com/hphotos-xaf1/t51.2885-15/s150x150/e15/10950346_1569947899915558_875460793_n.jpg
p623
aVhttp://scontent-b.cdninstagram.com/hphotos-xaf1/t51.2885-15/s150x150/e15/10963848_758079320949901_1461883189_n.jpg
p624
aVhttp://scontent-b.cdninstagram.com/hphotos-xaf1/t51.2885-15/s150x150/e15/10914501_833985563328726_968286837_n.jpg
p625
aVhttp://scontent-a.cdninstagram.com/hphotos-xaf1/t51.2885-15/s150x150/e15/10958667_1407096489587136_1823990475_n.jpg
p626
aVhttp://scontent-b.cdninstagram.com/hphotos-xpf1/t51.2885-15/s150x150/e15/10518088_764018660340838_272164016_n.jpg
p627
aVhttp://scontent-b.cdninstagram.com/hphotos-xfa1/t51.2885-15/s150x150/e15/10932218_791552570926770_1396606223_n.jpg
p628
asg92
F-73.989576
sg93
(lp629
I0
aI0
aI1
aI1
aI0
aI0
aI0
aI0
aI2
aI1
aI0
aI0
aI0
aI0
aI0
aI2
aI2
aI3
aI2
aI4
aI1
aI2
aI1
aI4
aI0
aI0
aI1
aI0
aI1
aI1
aI1
aI0
aI1
aI1
aI1
aI1
aI3
aI0
aI0
aI4
aI2
aI1
aI1
aI2
aI1
aI1
aI1
aI1
aI1
aI2
aI1
aI1
aI1
aI1
aI2
aI6
aI5
aI8
aI6
aI1
aI6
aI2
aI7
aI1
aI5
aI6
aI3
aI4
aI1
aI4
aI5
aI1
aI1
aI1
aI2
aI3
aI1
aI3
aI2
aI2
aI1
asg95
F40.731886
sg96
S'Webster Hall'
p630
ssg1
(g5
S'\xb8*q \x00\x00\x00\x00'
p631
tp632
Rp633
(dp634
g12
(lp635
S'2015-01-27 09:00:00'
p636
aS'2015-01-27 10:00:00'
p637
aS'2015-01-27 11:00:00'
p638
aS'2015-01-27 12:00:00'
p639
aS'2015-01-27 13:00:00'
p640
aS'2015-01-27 14:00:00'
p641
aS'2015-01-27 15:00:00'
p642
aS'2015-01-27 16:00:00'
p643
aS'2015-01-27 17:00:00'
p644
aS'2015-01-27 18:00:00'
p645
aS'2015-01-27 19:00:00'
p646
aS'2015-01-27 20:00:00'
p647
aS'2015-01-27 21:00:00'
p648
aS'2015-01-27 22:00:00'
p649
aS'2015-01-27 23:00:00'
p650
aS'2015-01-29 09:00:00'
p651
aS'2015-01-29 10:00:00'
p652
aS'2015-01-29 11:00:00'
p653
aS'2015-01-29 13:00:00'
p654
aS'2015-01-29 14:00:00'
p655
aS'2015-01-29 15:00:00'
p656
aS'2015-01-29 16:00:00'
p657
aS'2015-01-29 17:00:00'
p658
aS'2015-01-29 18:00:00'
p659
aS'2015-01-29 19:00:00'
p660
aS'2015-01-28 09:00:00'
p661
aS'2015-01-28 10:00:00'
p662
aS'2015-01-28 11:00:00'
p663
aS'2015-01-28 12:00:00'
p664
aS'2015-01-28 13:00:00'
p665
aS'2015-01-28 14:00:00'
p666
aS'2015-01-28 15:00:00'
p667
aS'2015-01-28 16:00:00'
p668
aS'2015-01-28 17:00:00'
p669
aS'2015-01-28 18:00:00'
p670
aS'2015-01-28 19:00:00'
p671
aS'2015-01-28 20:00:00'
p672
aS'2015-01-28 21:00:00'
p673
aS'2015-01-28 22:00:00'
p674
aS'2015-01-28 23:00:00'
p675
aS'2015-01-29 21:00:00'
p676
aS'2015-01-29 22:00:00'
p677
aS'2015-01-29 23:00:00'
p678
aS'2015-01-30 09:00:00'
p679
aS'2015-01-30 11:00:00'
p680
aS'2015-01-30 12:00:00'
p681
aS'2015-01-30 13:00:00'
p682
aS'2015-01-30 14:00:00'
p683
aS'2015-01-30 15:00:00'
p684
aS'2015-01-30 16:00:00'
p685
aS'2015-01-30 17:00:00'
p686
aS'2015-01-30 18:00:00'
p687
aS'2015-01-30 19:00:00'
p688
aS'2015-01-30 20:00:00'
p689
aS'2015-01-30 21:00:00'
p690
aS'2015-01-30 22:00:00'
p691
aS'2015-01-31 12:00:00'
p692
aS'2015-01-31 13:00:00'
p693
aS'2015-01-31 14:00:00'
p694
aS'2015-01-31 15:00:00'
p695
aS'2015-01-31 16:00:00'
p696
aS'2015-01-31 17:00:00'
p697
aS'2015-01-31 18:00:00'
p698
aS'2015-01-31 19:00:00'
p699
aS'2015-01-31 20:00:00'
p700
aS'2015-01-31 21:00:00'
p701
aS'2015-01-31 23:00:00'
p702
aS'2015-02-01 09:00:00'
p703
aS'2015-02-01 11:00:00'
p704
aS'2015-02-01 12:00:00'
p705
aS'2015-02-01 13:00:00'
p706
aS'2015-02-01 14:00:00'
p707
aS'2015-02-01 15:00:00'
p708
aS'2015-02-01 16:00:00'
p709
aS'2015-02-01 17:00:00'
p710
aS'2015-02-01 18:00:00'
p711
aS'2015-02-01 19:00:00'
p712
aS'2015-02-01 20:00:00'
p713
aS'2015-02-01 22:00:00'
p714
aS'2015-02-01 23:00:00'
p715
asg78
g79
sg80
(lp716
Vhttp://scontent-a.cdninstagram.com/hphotos-xpa1/t51.2885-15/s150x150/e15/10299793_1609265899295053_1701620414_n.jpg
p717
aVhttp://scontent-a.cdninstagram.com/hphotos-xfa1/t51.2885-15/s150x150/e15/10948817_1551678578449372_116155415_n.jpg
p718
aVhttp://scontent-a.cdninstagram.com/hphotos-xpa1/t51.2885-15/s150x150/e15/1597955_436183983200955_619654744_n.jpg
p719
aVhttp://scontent-b.cdninstagram.com/hphotos-xpa1/t51.2885-15/s150x150/e15/1971344_772017682879942_187483202_n.jpg
p720
aVhttp://scontent-b.cdninstagram.com/hphotos-xfa1/t51.2885-15/s150x150/e15/10963805_208314729339156_456800711_n.jpg
p721
aVhttp://scontent-b.cdninstagram.com/hphotos-xaf1/t51.2885-15/s150x150/e15/10950358_390874207703841_1970251965_n.jpg
p722
aVhttp://scontent-a.cdninstagram.com/hphotos-xpa1/t51.2885-15/s150x150/e15/1515697_714447978672863_850554365_n.jpg
p723
aVhttp://scontent-b.cdninstagram.com/hphotos-xaf1/t51.2885-15/s150x150/e15/10914483_393847374119539_310210172_n.jpg
p724
aVhttp://scontent-b.cdninstagram.com/hphotos-xaf1/t51.2885-15/s150x150/e15/10946527_1622212081341841_869327310_n.jpg
p725
aVhttp://scontent-b.cdninstagram.com/hphotos-xaf1/t51.2885-15/s150x150/e15/10948873_640090919429615_946579976_n.jpg
p726
asg92
F-74.003073
sg93
(lp727
I0
aI3
aI5
aI0
aI1
aI0
aI5
aI4
aI4
aI0
aI1
aI0
aI0
aI4
aI0
aI2
aI1
aI1
aI1
aI2
aI2
aI2
aI2
aI3
aI1
aI2
aI0
aI0
aI1
aI1
aI1
aI2
aI2
aI1
aI3
aI0
aI1
aI1
aI0
aI1
aI2
aI1
aI2
aI3
aI3
aI3
aI4
aI1
aI2
aI1
aI3
aI1
aI1
aI1
aI1
aI5
aI1
aI1
aI6
aI4
aI1
aI9
aI3
aI5
aI1
aI5
aI1
aI1
aI2
aI1
aI2
aI3
aI1
aI6
aI5
aI3
aI3
aI2
aI1
aI1
asg95
F40.733966
sg96
S'CHALAIT'
p728
ssg1
(g5
S'\xef\x05\x00\x00\x00\x00\x00\x00'
p729
tp730
Rp731
(dp732
g12
(lp733
S'2015-01-27 09:00:00'
p734
aS'2015-01-27 10:00:00'
p735
aS'2015-01-27 11:00:00'
p736
aS'2015-01-27 12:00:00'
p737
aS'2015-01-27 13:00:00'
p738
aS'2015-01-27 14:00:00'
p739
aS'2015-01-27 15:00:00'
p740
aS'2015-01-27 16:00:00'
p741
aS'2015-01-27 17:00:00'
p742
aS'2015-01-27 18:00:00'
p743
aS'2015-01-27 19:00:00'
p744
aS'2015-01-27 20:00:00'
p745
aS'2015-01-27 21:00:00'
p746
aS'2015-01-27 22:00:00'
p747
aS'2015-01-27 23:00:00'
p748
aS'2015-01-29 11:00:00'
p749
aS'2015-01-29 13:00:00'
p750
aS'2015-01-29 15:00:00'
p751
aS'2015-01-29 16:00:00'
p752
aS'2015-01-29 17:00:00'
p753
aS'2015-01-29 18:00:00'
p754
aS'2015-01-29 19:00:00'
p755
aS'2015-01-28 09:00:00'
p756
aS'2015-01-28 10:00:00'
p757
aS'2015-01-28 11:00:00'
p758
aS'2015-01-28 12:00:00'
p759
aS'2015-01-28 13:00:00'
p760
aS'2015-01-28 14:00:00'
p761
aS'2015-01-28 15:00:00'
p762
aS'2015-01-28 16:00:00'
p763
aS'2015-01-28 17:00:00'
p764
aS'2015-01-28 18:00:00'
p765
aS'2015-01-28 19:00:00'
p766
aS'2015-01-28 20:00:00'
p767
aS'2015-01-28 21:00:00'
p768
aS'2015-01-28 22:00:00'
p769
aS'2015-01-28 23:00:00'
p770
aS'2015-01-29 20:00:00'
p771
aS'2015-01-29 21:00:00'
p772
aS'2015-01-29 22:00:00'
p773
aS'2015-01-29 23:00:00'
p774
aS'2015-01-30 09:00:00'
p775
aS'2015-01-30 10:00:00'
p776
aS'2015-01-30 11:00:00'
p777
aS'2015-01-30 12:00:00'
p778
aS'2015-01-30 13:00:00'
p779
aS'2015-01-30 14:00:00'
p780
aS'2015-01-30 15:00:00'
p781
aS'2015-01-30 16:00:00'
p782
aS'2015-01-30 17:00:00'
p783
aS'2015-01-30 18:00:00'
p784
aS'2015-01-30 19:00:00'
p785
aS'2015-01-30 20:00:00'
p786
aS'2015-01-30 21:00:00'
p787
aS'2015-01-30 22:00:00'
p788
aS'2015-01-30 23:00:00'
p789
aS'2015-01-31 09:00:00'
p790
aS'2015-01-31 10:00:00'
p791
aS'2015-01-31 11:00:00'
p792
aS'2015-01-31 12:00:00'
p793
aS'2015-01-31 13:00:00'
p794
aS'2015-01-31 14:00:00'
p795
aS'2015-01-31 15:00:00'
p796
aS'2015-01-31 16:00:00'
p797
aS'2015-01-31 17:00:00'
p798
aS'2015-01-31 18:00:00'
p799
aS'2015-01-31 19:00:00'
p800
aS'2015-01-31 20:00:00'
p801
aS'2015-01-31 21:00:00'
p802
aS'2015-01-31 22:00:00'
p803
aS'2015-01-31 23:00:00'
p804
aS'2015-02-01 09:00:00'
p805
aS'2015-02-01 10:00:00'
p806
aS'2015-02-01 11:00:00'
p807
aS'2015-02-01 12:00:00'
p808
aS'2015-02-01 13:00:00'
p809
aS'2015-02-01 14:00:00'
p810
aS'2015-02-01 15:00:00'
p811
aS'2015-02-01 16:00:00'
p812
aS'2015-02-01 17:00:00'
p813
aS'2015-02-01 18:00:00'
p814
aS'2015-02-01 19:00:00'
p815
aS'2015-02-01 20:00:00'
p816
aS'2015-02-01 21:00:00'
p817
aS'2015-02-01 22:00:00'
p818
aS'2015-02-01 23:00:00'
p819
asg78
g79
sg80
(lp820
Vhttp://scontent-a.cdninstagram.com/hphotos-xaf1/t51.2885-15/s150x150/e15/10963836_1041780852503762_2113595547_n.jpg
p821
aVhttp://scontent-b.cdninstagram.com/hphotos-xaf1/t51.2885-15/s150x150/e15/10957381_1566203886956645_1749141868_n.jpg
p822
aVhttp://scontent-b.cdninstagram.com/hphotos-xfa1/t51.2885-15/s150x150/e15/10946318_556449741158084_827384561_n.jpg
p823
aVhttp://scontent-b.cdninstagram.com/hphotos-xaf1/t51.2885-15/s150x150/e15/10949065_339088882945362_1672446845_n.jpg
p824
aVhttp://scontent-a.cdninstagram.com/hphotos-xfa1/t51.2885-15/s150x150/e15/10950320_621240851340061_35684574_n.jpg
p825
aVhttp://scontent-a.cdninstagram.com/hphotos-xaf1/t51.2885-15/s150x150/e15/10946233_618533714945408_1520094043_n.jpg
p826
aVhttp://scontent-b.cdninstagram.com/hphotos-xpa1/t51.2885-15/s150x150/e15/924628_1546891298925896_1394220126_n.jpg
p827
aVhttp://scontent-a.cdninstagram.com/hphotos-xaf1/t51.2885-15/s150x150/e15/10957381_1537857326464891_463899491_n.jpg
p828
aVhttp://scontent-b.cdninstagram.com/hphotos-xaf1/t51.2885-15/s150x150/e15/10890535_873775409351780_369985363_n.jpg
p829
aVhttp://scontent-b.cdninstagram.com/hphotos-xap1/t51.2885-15/s150x150/e15/10499233_938632902836544_950276699_n.jpg
p830
aVhttp://scontent-a.cdninstagram.com/hphotos-xaf1/t51.2885-15/s150x150/e15/10963885_816019358451641_794502632_n.jpg
p831
aVhttp://scontent-a.cdninstagram.com/hphotos-xfp1/t51.2885-15/s150x150/e15/10547359_1558702281035664_1620705937_n.jpg
p832
aVhttp://scontent-b.cdninstagram.com/hphotos-xfa1/t51.2885-15/s150x150/e15/10963943_708601429260505_2102943656_n.jpg
p833
aVhttp://scontent-b.cdninstagram.com/hphotos-xpa1/t51.2885-15/s150x150/e15/1743032_753135594782791_2082996272_n.jpg
p834
aVhttp://scontent-b.cdninstagram.com/hphotos-xaf1/t51.2885-15/s150x150/e15/10919328_776628085749295_1322645491_n.jpg
p835
aVhttp://scontent-a.cdninstagram.com/hphotos-xaf1/t51.2885-15/s150x150/e15/10817544_755656574517940_743717624_n.jpg
p836
aVhttp://scontent-b.cdninstagram.com/hphotos-xaf1/t51.2885-15/s150x150/e15/10950336_774616649260872_786728143_n.jpg
p837
aVhttp://scontent-a.cdninstagram.com/hphotos-xaf1/t51.2885-15/s150x150/e15/10952598_783431911740635_350957314_n.jpg
p838
asg92
F-73.992844
sg93
(lp839
I0
aI0
aI2
aI0
aI0
aI2
aI0
aI1
aI0
aI1
aI0
aI4
aI2
aI3
aI1
aI4
aI1
aI3
aI3
aI4
aI4
aI1
aI0
aI0
aI0
aI1
aI4
aI5
aI5
aI4
aI0
aI2
aI1
aI1
aI5
aI0
aI1
aI7
aI9
aI9
aI16
aI1
aI3
aI2
aI1
aI7
aI2
aI4
aI7
aI2
aI3
aI1
aI4
aI5
aI3
aI2
aI1
aI2
aI1
aI3
aI3
aI3
aI12
aI10
aI14
aI15
aI13
aI7
aI6
aI6
aI4
aI2
aI1
aI1
aI3
aI3
aI7
aI9
aI13
aI12
aI7
aI10
aI5
aI4
aI3
aI4
asg95
F40.722337
sg96
S'New Museum'
p840
ssg1
(g5
S'\xd8\xc4-\x00\x00\x00\x00\x00'
p841
tp842
Rp843
(dp844
g12
(lp845
S'2015-01-27 09:00:00'
p846
aS'2015-01-27 10:00:00'
p847
aS'2015-01-27 11:00:00'
p848
aS'2015-01-27 12:00:00'
p849
aS'2015-01-27 13:00:00'
p850
aS'2015-01-27 14:00:00'
p851
aS'2015-01-27 15:00:00'
p852
aS'2015-01-27 16:00:00'
p853
aS'2015-01-27 17:00:00'
p854
aS'2015-01-27 18:00:00'
p855
aS'2015-01-27 19:00:00'
p856
aS'2015-01-27 20:00:00'
p857
aS'2015-01-27 21:00:00'
p858
aS'2015-01-27 22:00:00'
p859
aS'2015-01-27 23:00:00'
p860
aS'2015-01-29 09:00:00'
p861
aS'2015-01-29 10:00:00'
p862
aS'2015-01-29 11:00:00'
p863
aS'2015-01-29 12:00:00'
p864
aS'2015-01-29 13:00:00'
p865
aS'2015-01-29 14:00:00'
p866
aS'2015-01-29 15:00:00'
p867
aS'2015-01-29 16:00:00'
p868
aS'2015-01-29 17:00:00'
p869
aS'2015-01-29 18:00:00'
p870
aS'2015-01-29 19:00:00'
p871
aS'2015-01-28 09:00:00'
p872
aS'2015-01-28 10:00:00'
p873
aS'2015-01-28 11:00:00'
p874
aS'2015-01-28 12:00:00'
p875
aS'2015-01-28 13:00:00'
p876
aS'2015-01-28 14:00:00'
p877
aS'2015-01-28 15:00:00'
p878
aS'2015-01-28 16:00:00'
p879
aS'2015-01-28 17:00:00'
p880
aS'2015-01-28 18:00:00'
p881
aS'2015-01-28 19:00:00'
p882
aS'2015-01-28 20:00:00'
p883
aS'2015-01-28 21:00:00'
p884
aS'2015-01-28 22:00:00'
p885
aS'2015-01-28 23:00:00'
p886
aS'2015-01-29 20:00:00'
p887
aS'2015-01-29 21:00:00'
p888
aS'2015-01-29 22:00:00'
p889
aS'2015-01-29 23:00:00'
p890
aS'2015-01-30 09:00:00'
p891
aS'2015-01-30 10:00:00'
p892
aS'2015-01-30 11:00:00'
p893
aS'2015-01-30 12:00:00'
p894
aS'2015-01-30 13:00:00'
p895
aS'2015-01-30 14:00:00'
p896
aS'2015-01-30 15:00:00'
p897
aS'2015-01-30 16:00:00'
p898
aS'2015-01-30 17:00:00'
p899
aS'2015-01-30 18:00:00'
p900
aS'2015-01-30 19:00:00'
p901
aS'2015-01-30 20:00:00'
p902
aS'2015-01-30 21:00:00'
p903
aS'2015-01-30 22:00:00'
p904
aS'2015-01-30 23:00:00'
p905
aS'2015-01-31 09:00:00'
p906
aS'2015-01-31 10:00:00'
p907
aS'2015-01-31 11:00:00'
p908
aS'2015-01-31 12:00:00'
p909
aS'2015-01-31 13:00:00'
p910
aS'2015-01-31 14:00:00'
p911
aS'2015-01-31 15:00:00'
p912
aS'2015-01-31 16:00:00'
p913
aS'2015-01-31 17:00:00'
p914
aS'2015-01-31 18:00:00'
p915
aS'2015-01-31 19:00:00'
p916
aS'2015-01-31 20:00:00'
p917
aS'2015-01-31 21:00:00'
p918
aS'2015-01-31 22:00:00'
p919
aS'2015-01-31 23:00:00'
p920
aS'2015-02-01 09:00:00'
p921
aS'2015-02-01 10:00:00'
p922
aS'2015-02-01 11:00:00'
p923
aS'2015-02-01 12:00:00'
p924
aS'2015-02-01 13:00:00'
p925
aS'2015-02-01 14:00:00'
p926
aS'2015-02-01 15:00:00'
p927
aS'2015-02-01 16:00:00'
p928
aS'2015-02-01 17:00:00'
p929
aS'2015-02-01 18:00:00'
p930
aS'2015-02-01 19:00:00'
p931
aS'2015-02-01 20:00:00'
p932
aS'2015-02-01 21:00:00'
p933
aS'2015-02-01 22:00:00'
p934
aS'2015-02-01 23:00:00'
p935
asg78
g79
sg80
(lp936
Vhttp://scontent-b.cdninstagram.com/hphotos-xaf1/t51.2885-15/s150x150/e15/10838350_1391001731208069_2142296125_n.jpg
p937
aVhttp://scontent-b.cdninstagram.com/hphotos-xfp1/t51.2885-15/s150x150/e15/891532_1582099155341199_304630477_n.jpg
p938
aVhttp://scontent-a.cdninstagram.com/hphotos-xaf1/t51.2885-15/s150x150/e15/10914477_766291596799478_476017063_n.jpg
p939
aVhttp://scontent-b.cdninstagram.com/hphotos-xaf1/t51.2885-15/s150x150/e15/10903299_1403095929991446_1008627381_n.jpg
p940
aVhttp://scontent-a.cdninstagram.com/hphotos-xaf1/t51.2885-15/s150x150/e15/10903213_1587209588158773_97942632_n.jpg
p941
aVhttp://scontent-b.cdninstagram.com/hphotos-xaf1/t51.2885-15/s150x150/e15/10963989_856490304417262_657987647_n.jpg
p942
aVhttp://scontent-b.cdninstagram.com/hphotos-xaf1/t51.2885-15/s150x150/e15/10948380_373021449546558_157991252_n.jpg
p943
aVhttp://scontent-a.cdninstagram.com/hphotos-xaf1/t51.2885-15/s150x150/e15/10948876_843563665704816_1616250687_n.jpg
p944
aVhttp://scontent-a.cdninstagram.com/hphotos-xaf1/l/t51.2885-15/s150x150/e15/10895376_1625155804372848_1992407254_n.jpg
p945
aVhttp://scontent-a.cdninstagram.com/hphotos-xfa1/t51.2885-15/s150x150/e15/10963901_916598528373309_1100392013_n.jpg
p946
aVhttp://scontent-b.cdninstagram.com/hphotos-xaf1/t51.2885-15/s150x150/e15/10952695_1520845378180286_1440351047_n.jpg
p947
aVhttp://scontent-a.cdninstagram.com/hphotos-xfa1/t51.2885-15/s150x150/e15/10948457_1577550859146791_1500907160_n.jpg
p948
aVhttp://scontent-a.cdninstagram.com/hphotos-xaf1/t51.2885-15/s150x150/e15/10963875_619044868225636_1569605183_n.jpg
p949
aVhttp://scontent-a.cdninstagram.com/hphotos-xpa1/l/t51.2885-15/s150x150/e15/1530616_1562329750676861_1821240200_n.jpg
p950
aVhttp://scontent-b.cdninstagram.com/hphotos-xfa1/t51.2885-15/s150x150/e15/10963799_698281616958822_104029340_n.jpg
p951
aVhttp://scontent-b.cdninstagram.com/hphotos-xfa1/t51.2885-15/s150x150/e15/10948193_895112703852854_683751147_n.jpg
p952
aVhttp://scontent-b.cdninstagram.com/hphotos-xaf1/t51.2885-15/s150x150/e15/10919082_1567258573513919_1932593631_n.jpg
p953
aVhttp://scontent-b.cdninstagram.com/hphotos-xap1/t51.2885-15/s150x150/e15/924630_331587637045372_1530069250_n.jpg
p954
asg92
F-73.977121461
sg93
(lp955
I3
aI4
aI2
aI1
aI2
aI2
aI4
aI5
aI3
aI6
aI4
aI3
aI2
aI2
aI5
aI2
aI1
aI4
aI11
aI7
aI11
aI14
aI12
aI10
aI13
aI9
aI1
aI2
aI2
aI11
aI12
aI13
aI10
aI15
aI8
aI3
aI3
aI5
aI6
aI0
aI1
aI5
aI9
aI3
aI8
aI2
aI2
aI5
aI4
aI11
aI11
aI14
aI9
aI23
aI23
aI36
aI18
aI21
aI14
aI13
aI2
aI5
aI12
aI12
aI13
aI22
aI21
aI23
aI35
aI25
aI25
aI14
aI18
aI7
aI6
aI3
aI6
aI3
aI9
aI14
aI13
aI16
aI24
aI20
aI13
aI7
aI8
aI9
aI1
aI10
asg95
F40.761477712
sg96
S'MoMA The Museum of Modern Art'
p956
ss.