(dp0
cnumpy.core.multiarray
scalar
p1
(cnumpy
dtype
p2
(S'i8'
p3
I0
I1
tp4
Rp5
(I3
S'<'
p6
NNNI-1
I-1
I0
tp7
bS'\x8c\xb8\x01\x00\x00\x00\x00\x00'
p8
tp9
Rp10
(dp11
S't_h'
p12
(lp13
S'2015-01-26 09:00:00'
p14
aS'2015-01-26 10:00:00'
p15
aS'2015-01-26 11:00:00'
p16
aS'2015-01-26 12:00:00'
p17
aS'2015-01-26 13:00:00'
p18
aS'2015-01-26 14:00:00'
p19
aS'2015-01-26 15:00:00'
p20
aS'2015-01-26 16:00:00'
p21
aS'2015-01-26 17:00:00'
p22
aS'2015-01-26 18:00:00'
p23
aS'2015-01-26 19:00:00'
p24
aS'2015-01-26 20:00:00'
p25
aS'2015-01-26 21:00:00'
p26
aS'2015-01-26 22:00:00'
p27
aS'2015-01-26 23:00:00'
p28
aS'2015-01-27 09:00:00'
p29
aS'2015-01-27 10:00:00'
p30
aS'2015-01-27 11:00:00'
p31
aS'2015-01-27 12:00:00'
p32
aS'2015-01-27 13:00:00'
p33
aS'2015-01-27 14:00:00'
p34
aS'2015-01-27 15:00:00'
p35
aS'2015-01-27 16:00:00'
p36
aS'2015-01-27 17:00:00'
p37
aS'2015-01-27 18:00:00'
p38
aS'2015-01-27 19:00:00'
p39
aS'2015-01-27 20:00:00'
p40
aS'2015-01-27 21:00:00'
p41
aS'2015-01-27 22:00:00'
p42
aS'2015-01-27 23:00:00'
p43
aS'2015-01-29 10:00:00'
p44
aS'2015-01-29 11:00:00'
p45
aS'2015-01-29 12:00:00'
p46
aS'2015-01-29 14:00:00'
p47
aS'2015-01-29 15:00:00'
p48
aS'2015-01-29 16:00:00'
p49
aS'2015-01-29 18:00:00'
p50
aS'2015-01-29 19:00:00'
p51
aS'2015-01-28 09:00:00'
p52
aS'2015-01-28 10:00:00'
p53
aS'2015-01-28 11:00:00'
p54
aS'2015-01-28 12:00:00'
p55
aS'2015-01-28 13:00:00'
p56
aS'2015-01-28 14:00:00'
p57
aS'2015-01-28 15:00:00'
p58
aS'2015-01-28 16:00:00'
p59
aS'2015-01-28 17:00:00'
p60
aS'2015-01-28 18:00:00'
p61
aS'2015-01-28 19:00:00'
p62
aS'2015-01-28 20:00:00'
p63
aS'2015-01-28 21:00:00'
p64
aS'2015-01-28 22:00:00'
p65
aS'2015-01-28 23:00:00'
p66
aS'2015-01-29 20:00:00'
p67
aS'2015-01-29 21:00:00'
p68
aS'2015-01-29 22:00:00'
p69
aS'2015-01-29 23:00:00'
p70
aS'2015-01-30 09:00:00'
p71
aS'2015-01-30 10:00:00'
p72
aS'2015-01-30 11:00:00'
p73
aS'2015-01-30 12:00:00'
p74
aS'2015-01-30 13:00:00'
p75
aS'2015-01-30 15:00:00'
p76
aS'2015-01-30 16:00:00'
p77
aS'2015-01-30 17:00:00'
p78
aS'2015-01-30 18:00:00'
p79
aS'2015-01-30 19:00:00'
p80
aS'2015-01-30 20:00:00'
p81
aS'2015-01-30 21:00:00'
p82
aS'2015-01-30 22:00:00'
p83
aS'2015-01-30 23:00:00'
p84
aS'2015-01-31 09:00:00'
p85
aS'2015-01-31 10:00:00'
p86
aS'2015-01-31 11:00:00'
p87
aS'2015-01-31 12:00:00'
p88
aS'2015-01-31 13:00:00'
p89
aS'2015-01-31 14:00:00'
p90
aS'2015-01-31 15:00:00'
p91
aS'2015-01-31 16:00:00'
p92
aS'2015-01-31 17:00:00'
p93
aS'2015-01-31 18:00:00'
p94
aS'2015-01-31 19:00:00'
p95
aS'2015-01-31 22:00:00'
p96
asS'event_type'
p97
S'Anomaly'
p98
sS'url'
p99
(lp100
Vhttp://scontent-a.cdninstagram.com/hphotos-xaf1/t51.2885-15/s150x150/e15/10919317_1404397216527167_859399760_n.jpg
p101
aVhttp://scontent-a.cdninstagram.com/hphotos-xfa1/t51.2885-15/s150x150/e15/10963799_1575857765991781_288807050_n.jpg
p102
aVhttp://scontent-a.cdninstagram.com/hphotos-xap1/t51.2885-15/s150x150/e15/10522851_1402862350014980_1309770886_n.jpg
p103
aVhttp://scontent-a.cdninstagram.com/hphotos-xfa1/t51.2885-15/s150x150/e15/10948205_1458870604362515_511799249_n.jpg
p104
aVhttp://scontent-a.cdninstagram.com/hphotos-xpa1/t51.2885-15/s150x150/e15/1538422_1411160515847969_1788862697_n.jpg
p105
aVhttp://scontent-a.cdninstagram.com/hphotos-xaf1/t51.2885-15/s150x150/e15/10948890_399466186888622_593462145_n.jpg
p106
aVhttp://scontent-a.cdninstagram.com/hphotos-xfa1/t51.2885-15/s150x150/e15/10957406_357341004450952_2110164032_n.jpg
p107
aVhttp://scontent-b.cdninstagram.com/hphotos-frc/l/t51.2885-15/s150x150/e15/10543578_797803780257099_775735098_n.jpg
p108
aVhttp://scontent-a.cdninstagram.com/hphotos-xaf1/t51.2885-15/s150x150/e15/10932303_657133604398165_190455216_n.jpg
p109
aVhttp://scontent-b.cdninstagram.com/hphotos-xaf1/t51.2885-15/s150x150/e15/10932505_1536837226582196_1558962781_n.jpg
p110
aVhttp://scontent-a.cdninstagram.com/hphotos-xfa1/t51.2885-15/s150x150/e15/10958573_678191382289763_1236232033_n.jpg
p111
aVhttp://scontent-a.cdninstagram.com/hphotos-xaf1/t51.2885-15/s150x150/e15/10948350_1531276657133629_789690882_n.jpg
p112
aVhttp://scontent-a.cdninstagram.com/hphotos-xfa1/t51.2885-15/s150x150/e15/1940998_332256953641599_1288997458_n.jpg
p113
aVhttp://scontent-b.cdninstagram.com/hphotos-xaf1/t51.2885-15/s150x150/e15/10948702_336588209882089_1023994515_n.jpg
p114
aVhttp://scontent-a.cdninstagram.com/hphotos-xap1/t51.2885-15/s150x150/e15/925968_772106452872314_535503229_n.jpg
p115
aVhttp://scontent-b.cdninstagram.com/hphotos-xaf1/t51.2885-15/s150x150/e15/10963789_425071564323446_2083378204_n.jpg
p116
aVhttp://scontent-a.cdninstagram.com/hphotos-xpa1/t51.2885-15/s150x150/e15/924025_780008382036733_117874139_n.jpg
p117
aVhttp://scontent-b.cdninstagram.com/hphotos-xaf1/t51.2885-15/s150x150/e15/10946254_1589617687917069_1508606592_n.jpg
p118
asS'lon'
p119
F-74.002552516
sS'x_h'
p120
(lp121
I0
aI0
aI0
aI0
aI0
aI1
aI1
aI0
aI0
aI0
aI0
aI0
aI0
aI0
aI0
aI0
aI0
aI0
aI0
aI1
aI0
aI0
aI1
aI0
aI1
aI0
aI0
aI0
aI1
aI1
aI1
aI1
aI1
aI2
aI2
aI1
aI1
aI1
aI0
aI0
aI1
aI0
aI0
aI1
aI0
aI1
aI1
aI0
aI1
aI0
aI0
aI0
aI0
aI2
aI2
aI1
aI5
aI2
aI1
aI3
aI4
aI2
aI1
aI4
aI3
aI3
aI3
aI2
aI3
aI3
aI2
aI1
aI1
aI1
aI3
aI2
aI3
aI4
aI6
aI4
aI5
aI3
aI3
asS'lat'
p122
F40.750087104
sS'name'
p123
S'Marquee New York'
p124
ssg1
(g5
S'\xef\x05\x00\x00\x00\x00\x00\x00'
p125
tp126
Rp127
(dp128
g12
(lp129
S'2015-01-26 09:00:00'
p130
aS'2015-01-26 10:00:00'
p131
aS'2015-01-26 11:00:00'
p132
aS'2015-01-26 12:00:00'
p133
aS'2015-01-26 13:00:00'
p134
aS'2015-01-26 14:00:00'
p135
aS'2015-01-26 15:00:00'
p136
aS'2015-01-26 16:00:00'
p137
aS'2015-01-26 17:00:00'
p138
aS'2015-01-26 18:00:00'
p139
aS'2015-01-26 19:00:00'
p140
aS'2015-01-26 20:00:00'
p141
aS'2015-01-26 21:00:00'
p142
aS'2015-01-26 22:00:00'
p143
aS'2015-01-26 23:00:00'
p144
aS'2015-01-27 09:00:00'
p145
aS'2015-01-27 10:00:00'
p146
aS'2015-01-27 11:00:00'
p147
aS'2015-01-27 12:00:00'
p148
aS'2015-01-27 13:00:00'
p149
aS'2015-01-27 14:00:00'
p150
aS'2015-01-27 15:00:00'
p151
aS'2015-01-27 16:00:00'
p152
aS'2015-01-27 17:00:00'
p153
aS'2015-01-27 18:00:00'
p154
aS'2015-01-27 19:00:00'
p155
aS'2015-01-27 20:00:00'
p156
aS'2015-01-27 21:00:00'
p157
aS'2015-01-27 22:00:00'
p158
aS'2015-01-27 23:00:00'
p159
aS'2015-01-29 11:00:00'
p160
aS'2015-01-29 13:00:00'
p161
aS'2015-01-29 15:00:00'
p162
aS'2015-01-29 16:00:00'
p163
aS'2015-01-29 17:00:00'
p164
aS'2015-01-29 18:00:00'
p165
aS'2015-01-29 19:00:00'
p166
aS'2015-01-28 09:00:00'
p167
aS'2015-01-28 10:00:00'
p168
aS'2015-01-28 11:00:00'
p169
aS'2015-01-28 12:00:00'
p170
aS'2015-01-28 13:00:00'
p171
aS'2015-01-28 14:00:00'
p172
aS'2015-01-28 15:00:00'
p173
aS'2015-01-28 16:00:00'
p174
aS'2015-01-28 17:00:00'
p175
aS'2015-01-28 18:00:00'
p176
aS'2015-01-28 19:00:00'
p177
aS'2015-01-28 20:00:00'
p178
aS'2015-01-28 21:00:00'
p179
aS'2015-01-28 22:00:00'
p180
aS'2015-01-28 23:00:00'
p181
aS'2015-01-29 20:00:00'
p182
aS'2015-01-29 21:00:00'
p183
aS'2015-01-29 22:00:00'
p184
aS'2015-01-29 23:00:00'
p185
aS'2015-01-30 09:00:00'
p186
aS'2015-01-30 10:00:00'
p187
aS'2015-01-30 11:00:00'
p188
aS'2015-01-30 12:00:00'
p189
aS'2015-01-30 13:00:00'
p190
aS'2015-01-30 14:00:00'
p191
aS'2015-01-30 15:00:00'
p192
aS'2015-01-30 16:00:00'
p193
aS'2015-01-30 17:00:00'
p194
aS'2015-01-30 18:00:00'
p195
aS'2015-01-30 19:00:00'
p196
aS'2015-01-30 20:00:00'
p197
aS'2015-01-30 21:00:00'
p198
aS'2015-01-30 22:00:00'
p199
aS'2015-01-30 23:00:00'
p200
aS'2015-01-31 09:00:00'
p201
aS'2015-01-31 10:00:00'
p202
aS'2015-01-31 11:00:00'
p203
aS'2015-01-31 12:00:00'
p204
aS'2015-01-31 13:00:00'
p205
aS'2015-01-31 14:00:00'
p206
aS'2015-01-31 15:00:00'
p207
aS'2015-01-31 16:00:00'
p208
aS'2015-01-31 17:00:00'
p209
aS'2015-01-31 18:00:00'
p210
aS'2015-01-31 19:00:00'
p211
aS'2015-01-31 20:00:00'
p212
aS'2015-01-31 21:00:00'
p213
aS'2015-01-31 22:00:00'
p214
aS'2015-01-31 23:00:00'
p215
asg97
g98
sg99
(lp216
Vhttp://scontent-b.cdninstagram.com/hphotos-xfa1/t51.2885-15/s150x150/e15/10932371_708672439249023_1656796055_n.jpg
p217
aVhttp://scontent-a.cdninstagram.com/hphotos-xfa1/t51.2885-15/s150x150/e15/10958144_1547921188790825_1132632473_n.jpg
p218
aVhttp://scontent-b.cdninstagram.com/hphotos-xfa1/t51.2885-15/s150x150/e15/10932488_1025497324143833_1795726273_n.jpg
p219
aVhttp://scontent-b.cdninstagram.com/hphotos-xfa1/t51.2885-15/s150x150/e15/10895360_1417246121901190_1568864392_n.jpg
p220
aVhttp://scontent-b.cdninstagram.com/hphotos-xap1/t51.2885-15/s150x150/e15/10724058_450080605140051_2029878783_n.jpg
p221
aVhttp://scontent-b.cdninstagram.com/hphotos-xaf1/t51.2885-15/s150x150/e15/10946547_627440164026756_1019965483_n.jpg
p222
aVhttp://scontent-a.cdninstagram.com/hphotos-xfa1/t51.2885-15/s150x150/e15/914494_1545909295688151_755353734_n.jpg
p223
aVhttp://scontent-b.cdninstagram.com/hphotos-xaf1/t51.2885-15/s150x150/e15/10899391_1408260949470457_266653194_n.jpg
p224
aVhttp://scontent-b.cdninstagram.com/hphotos-xfa1/t51.2885-15/s150x150/e15/10963760_1525836104345189_1693140683_n.jpg
p225
aVhttp://scontent-b.cdninstagram.com/hphotos-xaf1/t51.2885-15/s150x150/e15/10895284_1549771581961630_237258201_n.jpg
p226
aVhttp://scontent-a.cdninstagram.com/hphotos-xaf1/t51.2885-15/s150x150/e15/10950579_1550583131865261_1331928762_n.jpg
p227
aVhttp://scontent-b.cdninstagram.com/hphotos-xaf1/t51.2885-15/s150x150/e15/10954803_1545159832414259_2069360303_n.jpg
p228
aVhttp://scontent-b.cdninstagram.com/hphotos-xaf1/t51.2885-15/s150x150/e15/10963843_457847164366655_631945032_n.jpg
p229
aVhttp://scontent-b.cdninstagram.com/hphotos-xaf1/t51.2885-15/s150x150/e15/10948813_1609345365952111_599722185_n.jpg
p230
aVhttp://scontent-b.cdninstagram.com/hphotos-xaf1/t51.2885-15/s150x150/e15/10956874_825492014181475_37961133_n.jpg
p231
aVhttp://scontent-a.cdninstagram.com/hphotos-xpa1/t51.2885-15/s150x150/e15/10808422_729398810508493_2130883025_n.jpg
p232
aVhttp://scontent-b.cdninstagram.com/hphotos-xap1/t51.2885-15/s150x150/e15/924048_1548331622082474_596128356_n.jpg
p233
aVhttp://scontent-a.cdninstagram.com/hphotos-xpa1/t51.2885-15/s150x150/e15/10611271_605141679587753_1657910508_n.jpg
p234
asg119
F-73.992844
sg120
(lp235
I1
aI0
aI3
aI2
aI4
aI3
aI4
aI3
aI1
aI1
aI3
aI1
aI2
aI8
aI1
aI0
aI0
aI2
aI0
aI0
aI2
aI0
aI1
aI0
aI1
aI0
aI4
aI2
aI3
aI1
aI4
aI1
aI3
aI3
aI4
aI4
aI1
aI0
aI0
aI0
aI1
aI4
aI5
aI5
aI4
aI0
aI2
aI1
aI1
aI5
aI0
aI1
aI7
aI9
aI9
aI16
aI1
aI3
aI2
aI1
aI7
aI2
aI4
aI7
aI2
aI3
aI1
aI4
aI5
aI3
aI2
aI1
aI2
aI1
aI3
aI3
aI3
aI12
aI10
aI14
aI15
aI13
aI7
aI6
aI6
aI4
asg122
F40.722337
sg123
S'New Museum'
p236
ssg1
(g5
S'\xa0\t\xb2\x0c\x00\x00\x00\x00'
p237
tp238
Rp239
(dp240
g12
(lp241
S'2015-01-26 09:00:00'
p242
aS'2015-01-26 10:00:00'
p243
aS'2015-01-26 11:00:00'
p244
aS'2015-01-26 12:00:00'
p245
aS'2015-01-26 13:00:00'
p246
aS'2015-01-26 14:00:00'
p247
aS'2015-01-26 15:00:00'
p248
aS'2015-01-26 16:00:00'
p249
aS'2015-01-26 17:00:00'
p250
aS'2015-01-26 18:00:00'
p251
aS'2015-01-26 19:00:00'
p252
aS'2015-01-26 20:00:00'
p253
aS'2015-01-26 21:00:00'
p254
aS'2015-01-26 22:00:00'
p255
aS'2015-01-26 23:00:00'
p256
aS'2015-01-27 09:00:00'
p257
aS'2015-01-27 10:00:00'
p258
aS'2015-01-27 11:00:00'
p259
aS'2015-01-27 12:00:00'
p260
aS'2015-01-27 13:00:00'
p261
aS'2015-01-27 14:00:00'
p262
aS'2015-01-27 15:00:00'
p263
aS'2015-01-27 16:00:00'
p264
aS'2015-01-27 17:00:00'
p265
aS'2015-01-27 18:00:00'
p266
aS'2015-01-27 19:00:00'
p267
aS'2015-01-27 20:00:00'
p268
aS'2015-01-27 21:00:00'
p269
aS'2015-01-27 22:00:00'
p270
aS'2015-01-27 23:00:00'
p271
aS'2015-01-29 09:00:00'
p272
aS'2015-01-29 10:00:00'
p273
aS'2015-01-29 11:00:00'
p274
aS'2015-01-29 13:00:00'
p275
aS'2015-01-29 14:00:00'
p276
aS'2015-01-29 16:00:00'
p277
aS'2015-01-29 17:00:00'
p278
aS'2015-01-29 18:00:00'
p279
aS'2015-01-28 09:00:00'
p280
aS'2015-01-28 10:00:00'
p281
aS'2015-01-28 11:00:00'
p282
aS'2015-01-28 12:00:00'
p283
aS'2015-01-28 13:00:00'
p284
aS'2015-01-28 14:00:00'
p285
aS'2015-01-28 15:00:00'
p286
aS'2015-01-28 16:00:00'
p287
aS'2015-01-28 17:00:00'
p288
aS'2015-01-28 18:00:00'
p289
aS'2015-01-28 19:00:00'
p290
aS'2015-01-28 20:00:00'
p291
aS'2015-01-28 21:00:00'
p292
aS'2015-01-28 22:00:00'
p293
aS'2015-01-28 23:00:00'
p294
aS'2015-01-29 20:00:00'
p295
aS'2015-01-29 21:00:00'
p296
aS'2015-01-29 23:00:00'
p297
aS'2015-01-30 10:00:00'
p298
aS'2015-01-30 13:00:00'
p299
aS'2015-01-30 14:00:00'
p300
aS'2015-01-30 16:00:00'
p301
aS'2015-01-30 18:00:00'
p302
aS'2015-01-30 19:00:00'
p303
aS'2015-01-30 21:00:00'
p304
aS'2015-01-30 22:00:00'
p305
aS'2015-01-30 23:00:00'
p306
aS'2015-01-31 10:00:00'
p307
aS'2015-01-31 11:00:00'
p308
aS'2015-01-31 12:00:00'
p309
aS'2015-01-31 13:00:00'
p310
aS'2015-01-31 14:00:00'
p311
aS'2015-01-31 15:00:00'
p312
aS'2015-01-31 16:00:00'
p313
aS'2015-01-31 18:00:00'
p314
aS'2015-01-31 19:00:00'
p315
aS'2015-01-31 20:00:00'
p316
aS'2015-01-31 21:00:00'
p317
aS'2015-01-31 22:00:00'
p318
aS'2015-01-31 23:00:00'
p319
asg97
g98
sg99
(lp320
Vhttp://scontent-b.cdninstagram.com/hphotos-xpa1/t51.2885-15/s150x150/e15/10522847_867980869927558_1834088635_n.jpg
p321
aVhttp://scontent-a.cdninstagram.com/hphotos-xaf1/t51.2885-15/s150x150/e15/10954851_364076117121782_710918356_n.jpg
p322
aVhttp://scontent-b.cdninstagram.com/hphotos-xaf1/t51.2885-15/s150x150/e15/10932294_772217636198389_1950087615_n.jpg
p323
aVhttp://scontent-b.cdninstagram.com/hphotos-xaf1/t51.2885-15/s150x150/e15/10919653_1024363667577566_1756811009_n.jpg
p324
aVhttp://scontent-a.cdninstagram.com/hphotos-xpa1/t51.2885-15/s150x150/e15/10665413_395436587285049_708649533_n.jpg
p325
aVhttp://scontent-a.cdninstagram.com/hphotos-xaf1/t51.2885-15/s150x150/e15/10838622_395987020580227_758947437_n.jpg
p326
aVhttp://scontent-b.cdninstagram.com/hphotos-xaf1/t51.2885-15/s150x150/e15/10950588_341016206082228_1074869012_n.jpg
p327
aVhttp://scontent-a.cdninstagram.com/hphotos-xpa1/t51.2885-15/s150x150/e15/10326530_701905053256768_141318658_n.jpg
p328
aVhttp://scontent-b.cdninstagram.com/hphotos-xaf1/t51.2885-15/s150x150/e15/10956594_383856178440741_12285684_n.jpg
p329
aVhttp://scontent-a.cdninstagram.com/hphotos-xaf1/t51.2885-15/s150x150/e15/10958530_902015969843189_1445146033_n.jpg
p330
aVhttp://scontent-b.cdninstagram.com/hphotos-xaf1/t51.2885-15/s150x150/e15/10895370_688116977967724_1269272981_n.jpg
p331
aVhttp://scontent-b.cdninstagram.com/hphotos-xfa1/t51.2885-15/s150x150/e15/10958492_653838544727555_1214779849_n.jpg
p332
aVhttp://scontent-b.cdninstagram.com/hphotos-xaf1/t51.2885-15/s150x150/e15/10952955_1603314803235912_1630485888_n.jpg
p333
aVhttp://scontent-b.cdninstagram.com/hphotos-xaf1/t51.2885-15/s150x150/e15/10946248_1595968313957968_480757480_n.jpg
p334
aVhttp://scontent-a.cdninstagram.com/hphotos-xfa1/t51.2885-15/s150x150/e15/10954757_396694893845032_164292619_n.jpg
p335
aVhttp://scontent-b.cdninstagram.com/hphotos-xfa1/t51.2885-15/s150x150/e15/10946297_315723891959127_1009038987_n.jpg
p336
aVhttp://scontent-a.cdninstagram.com/hphotos-xfa1/t51.2885-15/s150x150/e15/10914641_783918868322059_355873662_n.jpg
p337
aVhttp://scontent-a.cdninstagram.com/hphotos-xpa1/t51.2885-15/s150x150/e15/927398_874373879249917_1837295961_n.jpg
p338
asg119
F-73.984005239
sg120
(lp339
I1
aI1
aI0
aI1
aI2
aI1
aI1
aI2
aI1
aI0
aI1
aI1
aI2
aI1
aI1
aI1
aI1
aI0
aI1
aI1
aI0
aI0
aI2
aI0
aI1
aI9
aI3
aI0
aI5
aI2
aI1
aI2
aI1
aI2
aI1
aI1
aI1
aI1
aI1
aI1
aI0
aI1
aI0
aI1
aI0
aI0
aI2
aI0
aI6
aI2
aI0
aI0
aI1
aI3
aI1
aI5
aI1
aI2
aI2
aI1
aI1
aI4
aI1
aI11
aI3
aI1
aI2
aI1
aI1
aI3
aI2
aI1
aI2
aI6
aI2
aI2
aI10
aI3
asg122
F40.756712645
sg123
S'Belasco Theatre'
p340
ssg1
(g5
S'!\x1b\x08\x00\x00\x00\x00\x00'
p341
tp342
Rp343
(dp344
g12
(lp345
S'2015-01-26 09:00:00'
p346
aS'2015-01-26 10:00:00'
p347
aS'2015-01-26 11:00:00'
p348
aS'2015-01-26 12:00:00'
p349
aS'2015-01-26 13:00:00'
p350
aS'2015-01-26 14:00:00'
p351
aS'2015-01-26 15:00:00'
p352
aS'2015-01-26 16:00:00'
p353
aS'2015-01-26 17:00:00'
p354
aS'2015-01-26 18:00:00'
p355
aS'2015-01-26 19:00:00'
p356
aS'2015-01-26 20:00:00'
p357
aS'2015-01-26 21:00:00'
p358
aS'2015-01-26 22:00:00'
p359
aS'2015-01-26 23:00:00'
p360
aS'2015-01-27 09:00:00'
p361
aS'2015-01-27 10:00:00'
p362
aS'2015-01-27 11:00:00'
p363
aS'2015-01-27 12:00:00'
p364
aS'2015-01-27 13:00:00'
p365
aS'2015-01-27 14:00:00'
p366
aS'2015-01-27 15:00:00'
p367
aS'2015-01-27 16:00:00'
p368
aS'2015-01-27 17:00:00'
p369
aS'2015-01-27 18:00:00'
p370
aS'2015-01-27 19:00:00'
p371
aS'2015-01-27 20:00:00'
p372
aS'2015-01-27 21:00:00'
p373
aS'2015-01-27 22:00:00'
p374
aS'2015-01-27 23:00:00'
p375
aS'2015-01-29 09:00:00'
p376
aS'2015-01-29 10:00:00'
p377
aS'2015-01-29 11:00:00'
p378
aS'2015-01-29 12:00:00'
p379
aS'2015-01-29 13:00:00'
p380
aS'2015-01-29 19:00:00'
p381
aS'2015-01-28 09:00:00'
p382
aS'2015-01-28 10:00:00'
p383
aS'2015-01-28 11:00:00'
p384
aS'2015-01-28 12:00:00'
p385
aS'2015-01-28 13:00:00'
p386
aS'2015-01-28 14:00:00'
p387
aS'2015-01-28 15:00:00'
p388
aS'2015-01-28 16:00:00'
p389
aS'2015-01-28 17:00:00'
p390
aS'2015-01-28 18:00:00'
p391
aS'2015-01-28 19:00:00'
p392
aS'2015-01-28 20:00:00'
p393
aS'2015-01-28 21:00:00'
p394
aS'2015-01-28 22:00:00'
p395
aS'2015-01-28 23:00:00'
p396
aS'2015-01-29 20:00:00'
p397
aS'2015-01-29 21:00:00'
p398
aS'2015-01-29 22:00:00'
p399
aS'2015-01-29 23:00:00'
p400
aS'2015-01-30 09:00:00'
p401
aS'2015-01-30 14:00:00'
p402
aS'2015-01-30 19:00:00'
p403
aS'2015-01-30 20:00:00'
p404
aS'2015-01-30 22:00:00'
p405
aS'2015-01-30 23:00:00'
p406
aS'2015-01-31 12:00:00'
p407
aS'2015-01-31 13:00:00'
p408
aS'2015-01-31 14:00:00'
p409
aS'2015-01-31 15:00:00'
p410
aS'2015-01-31 16:00:00'
p411
aS'2015-01-31 17:00:00'
p412
aS'2015-01-31 18:00:00'
p413
aS'2015-01-31 19:00:00'
p414
aS'2015-01-31 20:00:00'
p415
aS'2015-01-31 21:00:00'
p416
aS'2015-01-31 22:00:00'
p417
aS'2015-01-31 23:00:00'
p418
asg97
g98
sg99
(lp419
Vhttp://scontent-a.cdninstagram.com/hphotos-xaf1/t51.2885-15/s150x150/e15/10919350_1407929589503784_1115734868_n.jpg
p420
aVhttp://scontent-a.cdninstagram.com/hphotos-xaf1/t51.2885-15/s150x150/e15/10903437_785138744911630_841685804_n.jpg
p421
aVhttp://scontent-b.cdninstagram.com/hphotos-xaf1/t51.2885-15/s150x150/e15/10932217_900160620028302_1040576403_n.jpg
p422
aVhttp://scontent-b.cdninstagram.com/hphotos-xpa1/t51.2885-15/s150x150/e15/924032_1534557990128279_606764329_n.jpg
p423
aVhttp://scontent-a.cdninstagram.com/hphotos-xaf1/t51.2885-15/s150x150/e15/10949004_1617402618489851_522666742_n.jpg
p424
aVhttp://scontent-a.cdninstagram.com/hphotos-xaf1/t51.2885-15/s150x150/e15/10953594_1378061425838145_1798079609_n.jpg
p425
aVhttp://scontent-a.cdninstagram.com/hphotos-xpf1/t51.2885-15/s150x150/e15/1662767_831562320242680_1203042553_n.jpg
p426
aVhttp://scontent-b.cdninstagram.com/hphotos-xfa1/t51.2885-15/s150x150/e15/10958417_441683939318141_2116159835_n.jpg
p427
aVhttp://scontent-b.cdninstagram.com/hphotos-xaf1/t51.2885-15/s150x150/e15/10963953_758034914246029_122486720_n.jpg
p428
aVhttp://scontent-b.cdninstagram.com/hphotos-xfa1/t51.2885-15/s150x150/e15/10932080_893553434023277_158591591_n.jpg
p429
aVhttp://scontent-b.cdninstagram.com/hphotos-xfa1/t51.2885-15/s150x150/e15/1661210_327876754073208_1675490639_n.jpg
p430
aVhttp://scontent-b.cdninstagram.com/hphotos-xfa1/t51.2885-15/s150x150/e15/10894961_428684777284030_1407254225_n.jpg
p431
aVhttp://scontent-a.cdninstagram.com/hphotos-xaf1/t51.2885-15/s150x150/e15/10932237_425443547618963_952392075_n.jpg
p432
aVhttp://scontent-b.cdninstagram.com/hphotos-xaf1/t51.2885-15/s150x150/e15/10949058_1583722498528448_1292977722_n.jpg
p433
aVhttp://scontent-b.cdninstagram.com/hphotos-xaf1/t51.2885-15/s150x150/e15/10948629_425410664276227_1275028367_n.jpg
p434
aVhttp://scontent-b.cdninstagram.com/hphotos-xap1/t51.2885-15/s150x150/e15/925323_1040731749274430_149460264_n.jpg
p435
aVhttp://scontent-a.cdninstagram.com/hphotos-xfp1/t51.2885-15/s150x150/e15/891535_843063659069950_616894487_n.jpg
p436
aVhttp://scontent-a.cdninstagram.com/hphotos-xaf1/t51.2885-15/s150x150/e15/10946542_336643319859615_665222625_n.jpg
p437
asg119
F-73.986980705
sg120
(lp438
I1
aI1
aI1
aI1
aI1
aI3
aI1
aI0
aI1
aI0
aI3
aI1
aI1
aI0
aI0
aI2
aI0
aI1
aI0
aI0
aI0
aI6
aI0
aI0
aI1
aI1
aI0
aI1
aI0
aI0
aI1
aI1
aI1
aI1
aI1
aI1
aI0
aI0
aI0
aI1
aI0
aI0
aI0
aI0
aI1
aI0
aI1
aI1
aI0
aI0
aI0
aI1
aI3
aI1
aI1
aI1
aI2
aI1
aI1
aI2
aI5
aI1
aI2
aI6
aI4
aI4
aI2
aI4
aI1
aI2
aI6
aI2
aI2
asg122
F40.720400461
sg123
S'Beauty & Essex'
p439
ssg1
(g5
S'0\xc6\x1f\x00\x00\x00\x00\x00'
p440
tp441
Rp442
(dp443
g12
(lp444
S'2015-01-26 09:00:00'
p445
aS'2015-01-26 10:00:00'
p446
aS'2015-01-26 11:00:00'
p447
aS'2015-01-26 12:00:00'
p448
aS'2015-01-26 13:00:00'
p449
aS'2015-01-26 14:00:00'
p450
aS'2015-01-26 15:00:00'
p451
aS'2015-01-26 16:00:00'
p452
aS'2015-01-26 17:00:00'
p453
aS'2015-01-26 18:00:00'
p454
aS'2015-01-26 19:00:00'
p455
aS'2015-01-26 20:00:00'
p456
aS'2015-01-26 21:00:00'
p457
aS'2015-01-26 22:00:00'
p458
aS'2015-01-26 23:00:00'
p459
aS'2015-01-27 09:00:00'
p460
aS'2015-01-27 10:00:00'
p461
aS'2015-01-27 11:00:00'
p462
aS'2015-01-27 12:00:00'
p463
aS'2015-01-27 13:00:00'
p464
aS'2015-01-27 14:00:00'
p465
aS'2015-01-27 15:00:00'
p466
aS'2015-01-27 16:00:00'
p467
aS'2015-01-27 17:00:00'
p468
aS'2015-01-27 18:00:00'
p469
aS'2015-01-27 19:00:00'
p470
aS'2015-01-27 20:00:00'
p471
aS'2015-01-27 21:00:00'
p472
aS'2015-01-27 22:00:00'
p473
aS'2015-01-27 23:00:00'
p474
aS'2015-01-29 09:00:00'
p475
aS'2015-01-29 10:00:00'
p476
aS'2015-01-29 11:00:00'
p477
aS'2015-01-29 12:00:00'
p478
aS'2015-01-29 13:00:00'
p479
aS'2015-01-29 14:00:00'
p480
aS'2015-01-29 15:00:00'
p481
aS'2015-01-29 16:00:00'
p482
aS'2015-01-29 17:00:00'
p483
aS'2015-01-29 18:00:00'
p484
aS'2015-01-29 19:00:00'
p485
aS'2015-01-28 09:00:00'
p486
aS'2015-01-28 10:00:00'
p487
aS'2015-01-28 11:00:00'
p488
aS'2015-01-28 12:00:00'
p489
aS'2015-01-28 13:00:00'
p490
aS'2015-01-28 14:00:00'
p491
aS'2015-01-28 15:00:00'
p492
aS'2015-01-28 16:00:00'
p493
aS'2015-01-28 17:00:00'
p494
aS'2015-01-28 18:00:00'
p495
aS'2015-01-28 19:00:00'
p496
aS'2015-01-28 20:00:00'
p497
aS'2015-01-28 21:00:00'
p498
aS'2015-01-28 22:00:00'
p499
aS'2015-01-28 23:00:00'
p500
aS'2015-01-29 20:00:00'
p501
aS'2015-01-29 21:00:00'
p502
aS'2015-01-29 22:00:00'
p503
aS'2015-01-29 23:00:00'
p504
aS'2015-01-30 09:00:00'
p505
aS'2015-01-30 10:00:00'
p506
aS'2015-01-30 11:00:00'
p507
aS'2015-01-30 12:00:00'
p508
aS'2015-01-30 13:00:00'
p509
aS'2015-01-30 14:00:00'
p510
aS'2015-01-30 15:00:00'
p511
aS'2015-01-30 16:00:00'
p512
aS'2015-01-30 17:00:00'
p513
aS'2015-01-30 18:00:00'
p514
aS'2015-01-30 19:00:00'
p515
aS'2015-01-30 20:00:00'
p516
aS'2015-01-30 21:00:00'
p517
aS'2015-01-30 22:00:00'
p518
aS'2015-01-30 23:00:00'
p519
aS'2015-01-31 09:00:00'
p520
aS'2015-01-31 10:00:00'
p521
aS'2015-01-31 11:00:00'
p522
aS'2015-01-31 12:00:00'
p523
aS'2015-01-31 13:00:00'
p524
aS'2015-01-31 14:00:00'
p525
aS'2015-01-31 15:00:00'
p526
aS'2015-01-31 16:00:00'
p527
aS'2015-01-31 17:00:00'
p528
aS'2015-01-31 18:00:00'
p529
aS'2015-01-31 19:00:00'
p530
aS'2015-01-31 20:00:00'
p531
aS'2015-01-31 21:00:00'
p532
aS'2015-01-31 22:00:00'
p533
aS'2015-01-31 23:00:00'
p534
asg97
g98
sg99
(lp535
Vhttp://scontent-b.cdninstagram.com/hphotos-xaf1/t51.2885-15/s150x150/e15/10919257_378195869019966_1268490491_n.jpg
p536
aVhttp://scontent-b.cdninstagram.com/hphotos-xap1/t51.2885-15/s150x150/e15/929221_1589629107919038_563067128_n.jpg
p537
aVhttp://scontent-b.cdninstagram.com/hphotos-xfa1/t51.2885-15/s150x150/e15/10958129_702832546500376_295261835_n.jpg
p538
aVhttp://scontent-a.cdninstagram.com/hphotos-xaf1/t51.2885-15/s150x150/e15/10958262_336870149844279_603404245_n.jpg
p539
aVhttp://scontent-a.cdninstagram.com/hphotos-xfa1/t51.2885-15/s150x150/e15/10895462_781999015221755_1628375473_n.jpg
p540
aVhttp://scontent-a.cdninstagram.com/hphotos-xfa1/t51.2885-15/s150x150/e15/10956872_792295804185543_1986090178_n.jpg
p541
aVhttp://scontent-a.cdninstagram.com/hphotos-xaf1/t51.2885-15/s150x150/e15/10946374_780296438718873_253949104_n.jpg
p542
aVhttp://scontent-b.cdninstagram.com/hphotos-xaf1/t51.2885-15/s150x150/e15/10958707_1603690379853007_1771191223_n.jpg
p543
aVhttp://scontent-b.cdninstagram.com/hphotos-xaf1/t51.2885-15/s150x150/e15/10948629_1052218491471418_1558302821_n.jpg
p544
aVhttp://scontent-b.cdninstagram.com/hphotos-xfa1/t51.2885-15/s150x150/e15/10964006_329218960606731_468640788_n.jpg
p545
aVhttp://scontent-b.cdninstagram.com/hphotos-xfa1/t51.2885-15/s150x150/e15/10952690_1783201021904916_1057129214_n.jpg
p546
aVhttp://scontent-a.cdninstagram.com/hphotos-xpa1/t51.2885-15/s150x150/e15/1538341_1594468584117810_587453240_n.jpg
p547
aVhttp://scontent-a.cdninstagram.com/hphotos-xaf1/t51.2885-15/s150x150/e15/10953070_1389165498058664_844586472_n.jpg
p548
aVhttp://scontent-a.cdninstagram.com/hphotos-xaf1/t51.2885-15/s150x150/e15/10895200_759516140805736_1557198343_n.jpg
p549
aVhttp://scontent-b.cdninstagram.com/hphotos-xap1/t51.2885-15/s150x150/e15/10175115_1533694133579595_1755279344_n.jpg
p550
aVhttp://scontent-a.cdninstagram.com/hphotos-xaf1/t51.2885-15/s150x150/e15/10932042_910183549015174_465805061_n.jpg
p551
aVhttp://scontent-a.cdninstagram.com/hphotos-xpf1/t51.2885-15/s150x150/e15/1662739_1387406301568412_1722447957_n.jpg
p552
aVhttp://scontent-b.cdninstagram.com/hphotos-xfa1/t51.2885-15/s150x150/e15/10949009_771440626278996_196945722_n.jpg
p553
asg119
F-73.992785274
sg120
(lp554
I4
aI4
aI7
aI9
aI9
aI13
aI17
aI10
aI11
aI8
aI8
aI3
aI2
aI6
aI2
aI8
aI5
aI1
aI2
aI1
aI6
aI6
aI5
aI6
aI6
aI6
aI3
aI1
aI1
aI2
aI2
aI11
aI10
aI13
aI11
aI9
aI8
aI5
aI5
aI7
aI33
aI2
aI4
aI1
aI3
aI2
aI2
aI6
aI2
aI5
aI13
aI54
aI111
aI103
aI0
aI27
aI79
aI54
aI26
aI24
aI4
aI4
aI6
aI6
aI5
aI5
aI5
aI7
aI6
aI9
aI5
aI22
aI76
aI81
aI82
aI12
aI18
aI22
aI16
aI31
aI27
aI23
aI13
aI4
aI14
aI38
aI59
aI44
aI42
aI16
asg122
F40.750526876
sg123
S'Madison Square Garden'
p555
ssg1
(g5
S'3\xf5\x04\x00\x00\x00\x00\x00'
p556
tp557
Rp558
(dp559
g12
(lp560
S'2015-01-26 09:00:00'
p561
aS'2015-01-26 10:00:00'
p562
aS'2015-01-26 11:00:00'
p563
aS'2015-01-26 12:00:00'
p564
aS'2015-01-26 13:00:00'
p565
aS'2015-01-26 14:00:00'
p566
aS'2015-01-26 15:00:00'
p567
aS'2015-01-26 16:00:00'
p568
aS'2015-01-26 17:00:00'
p569
aS'2015-01-26 18:00:00'
p570
aS'2015-01-26 19:00:00'
p571
aS'2015-01-26 20:00:00'
p572
aS'2015-01-26 21:00:00'
p573
aS'2015-01-26 22:00:00'
p574
aS'2015-01-26 23:00:00'
p575
aS'2015-01-27 09:00:00'
p576
aS'2015-01-27 10:00:00'
p577
aS'2015-01-27 11:00:00'
p578
aS'2015-01-27 12:00:00'
p579
aS'2015-01-27 13:00:00'
p580
aS'2015-01-27 14:00:00'
p581
aS'2015-01-27 15:00:00'
p582
aS'2015-01-27 16:00:00'
p583
aS'2015-01-27 17:00:00'
p584
aS'2015-01-27 18:00:00'
p585
aS'2015-01-27 19:00:00'
p586
aS'2015-01-27 20:00:00'
p587
aS'2015-01-27 21:00:00'
p588
aS'2015-01-27 22:00:00'
p589
aS'2015-01-27 23:00:00'
p590
aS'2015-01-29 10:00:00'
p591
aS'2015-01-29 12:00:00'
p592
aS'2015-01-29 13:00:00'
p593
aS'2015-01-29 15:00:00'
p594
aS'2015-01-29 16:00:00'
p595
aS'2015-01-29 17:00:00'
p596
aS'2015-01-28 09:00:00'
p597
aS'2015-01-28 10:00:00'
p598
aS'2015-01-28 11:00:00'
p599
aS'2015-01-28 12:00:00'
p600
aS'2015-01-28 13:00:00'
p601
aS'2015-01-28 14:00:00'
p602
aS'2015-01-28 15:00:00'
p603
aS'2015-01-28 16:00:00'
p604
aS'2015-01-28 17:00:00'
p605
aS'2015-01-28 18:00:00'
p606
aS'2015-01-28 19:00:00'
p607
aS'2015-01-28 20:00:00'
p608
aS'2015-01-28 21:00:00'
p609
aS'2015-01-28 22:00:00'
p610
aS'2015-01-28 23:00:00'
p611
aS'2015-01-30 13:00:00'
p612
aS'2015-01-30 15:00:00'
p613
aS'2015-01-30 16:00:00'
p614
aS'2015-01-30 17:00:00'
p615
aS'2015-01-30 18:00:00'
p616
aS'2015-01-30 19:00:00'
p617
aS'2015-01-30 20:00:00'
p618
aS'2015-01-30 21:00:00'
p619
aS'2015-01-30 22:00:00'
p620
aS'2015-01-31 12:00:00'
p621
aS'2015-01-31 14:00:00'
p622
aS'2015-01-31 16:00:00'
p623
aS'2015-01-31 17:00:00'
p624
aS'2015-01-31 18:00:00'
p625
aS'2015-01-31 19:00:00'
p626
aS'2015-01-31 20:00:00'
p627
aS'2015-01-31 21:00:00'
p628
aS'2015-01-31 22:00:00'
p629
aS'2015-01-31 23:00:00'
p630
asg97
g98
sg99
(lp631
Vhttp://scontent-a.cdninstagram.com/hphotos-xaf1/t51.2885-15/s150x150/e15/10957393_1537403276547513_678165220_n.jpg
p632
aVhttp://scontent-b.cdninstagram.com/hphotos-xfa1/t51.2885-15/s150x150/e15/10903358_1573968469556002_608208196_n.jpg
p633
aVhttp://scontent-b.cdninstagram.com/hphotos-xfa1/t51.2885-15/s150x150/e15/10919243_337594713106504_1722746249_n.jpg
p634
aVhttp://scontent-b.cdninstagram.com/hphotos-xfa1/t51.2885-15/s150x150/e15/10914617_883391968372719_976894783_n.jpg
p635
aVhttp://scontent-a.cdninstagram.com/hphotos-xfa1/t51.2885-15/s150x150/e15/10957310_428598937292436_1117944367_n.jpg
p636
aVhttp://scontent-b.cdninstagram.com/hphotos-xfa1/t51.2885-15/s150x150/e15/10914611_727214417396807_1178887596_n.jpg
p637
aVhttp://scontent-b.cdninstagram.com/hphotos-xaf1/t51.2885-15/s150x150/e15/10953055_383618061816543_250963133_n.jpg
p638
aVhttp://scontent-a.cdninstagram.com/hphotos-xaf1/t51.2885-15/s150x150/e15/10945194_831054433622016_758268430_n.jpg
p639
aVhttp://scontent-b.cdninstagram.com/hphotos-xaf1/t51.2885-15/s150x150/e15/10956612_429503010548098_1508386752_n.jpg
p640
aVhttp://scontent-b.cdninstagram.com/hphotos-xfp1/t51.2885-15/s150x150/e15/1515828_767945749966833_358540005_n.jpg
p641
aVhttp://scontent-a.cdninstagram.com/hphotos-xaf1/t51.2885-15/s150x150/e15/10895508_1550924318500201_1857309409_n.jpg
p642
aVhttp://scontent-a.cdninstagram.com/hphotos-xfa1/t51.2885-15/s150x150/e15/10838300_1543572285926736_316280918_n.jpg
p643
aVhttp://scontent-a.cdninstagram.com/hphotos-xaf1/t51.2885-15/s150x150/e15/10946488_741685965927990_1588710376_n.jpg
p644
aVhttp://scontent-a.cdninstagram.com/hphotos-xaf1/l/t51.2885-15/s150x150/e15/10948350_734685199959986_1684109320_n.jpg
p645
aVhttp://scontent-a.cdninstagram.com/hphotos-xpa1/t51.2885-15/s150x150/e15/10268932_1525359601063008_1260972537_n.jpg
p646
aVhttp://scontent-a.cdninstagram.com/hphotos-xfa1/t51.2885-15/s150x150/e15/10932377_1546023712347004_1455375848_n.jpg
p647
aVhttp://scontent-b.cdninstagram.com/hphotos-xaf1/t51.2885-15/s150x150/e15/10914564_351118688413159_1159936256_n.jpg
p648
aVhttp://scontent-a.cdninstagram.com/hphotos-xaf1/t51.2885-15/s150x150/e15/10919557_1580605732186156_628637728_n.jpg
p649
asg119
F-73.957825
sg120
(lp650
I1
aI0
aI2
aI1
aI1
aI0
aI0
aI1
aI2
aI1
aI2
aI2
aI0
aI0
aI0
aI1
aI1
aI1
aI0
aI0
aI0
aI0
aI1
aI0
aI0
aI0
aI0
aI0
aI0
aI0
aI1
aI1
aI1
aI1
aI1
aI1
aI1
aI0
aI1
aI0
aI1
aI0
aI0
aI0
aI0
aI0
aI0
aI1
aI0
aI0
aI0
aI1
aI1
aI2
aI5
aI4
aI1
aI1
aI2
aI1
aI2
aI1
aI3
aI8
aI3
aI2
aI6
aI2
aI2
aI3
asg122
F40.784222
sg123
S'Cooper Hewitt'
p651
ssg1
(g5
S'\xf6\x90\x00\x00\x00\x00\x00\x00'
p652
tp653
Rp654
(dp655
g12
(lp656
S'2015-01-26 09:00:00'
p657
aS'2015-01-26 10:00:00'
p658
aS'2015-01-26 11:00:00'
p659
aS'2015-01-26 12:00:00'
p660
aS'2015-01-26 13:00:00'
p661
aS'2015-01-26 14:00:00'
p662
aS'2015-01-26 15:00:00'
p663
aS'2015-01-26 16:00:00'
p664
aS'2015-01-26 17:00:00'
p665
aS'2015-01-26 18:00:00'
p666
aS'2015-01-26 19:00:00'
p667
aS'2015-01-26 20:00:00'
p668
aS'2015-01-26 21:00:00'
p669
aS'2015-01-26 22:00:00'
p670
aS'2015-01-26 23:00:00'
p671
aS'2015-01-27 09:00:00'
p672
aS'2015-01-27 10:00:00'
p673
aS'2015-01-27 11:00:00'
p674
aS'2015-01-27 12:00:00'
p675
aS'2015-01-27 13:00:00'
p676
aS'2015-01-27 14:00:00'
p677
aS'2015-01-27 15:00:00'
p678
aS'2015-01-27 16:00:00'
p679
aS'2015-01-27 17:00:00'
p680
aS'2015-01-27 18:00:00'
p681
aS'2015-01-27 19:00:00'
p682
aS'2015-01-27 20:00:00'
p683
aS'2015-01-27 21:00:00'
p684
aS'2015-01-27 22:00:00'
p685
aS'2015-01-27 23:00:00'
p686
aS'2015-01-29 10:00:00'
p687
aS'2015-01-29 13:00:00'
p688
aS'2015-01-29 17:00:00'
p689
aS'2015-01-28 09:00:00'
p690
aS'2015-01-28 10:00:00'
p691
aS'2015-01-28 11:00:00'
p692
aS'2015-01-28 12:00:00'
p693
aS'2015-01-28 13:00:00'
p694
aS'2015-01-28 14:00:00'
p695
aS'2015-01-28 15:00:00'
p696
aS'2015-01-28 16:00:00'
p697
aS'2015-01-28 17:00:00'
p698
aS'2015-01-28 18:00:00'
p699
aS'2015-01-28 19:00:00'
p700
aS'2015-01-28 20:00:00'
p701
aS'2015-01-28 21:00:00'
p702
aS'2015-01-28 22:00:00'
p703
aS'2015-01-28 23:00:00'
p704
aS'2015-01-29 20:00:00'
p705
aS'2015-01-29 21:00:00'
p706
aS'2015-01-29 22:00:00'
p707
aS'2015-01-30 10:00:00'
p708
aS'2015-01-30 12:00:00'
p709
aS'2015-01-30 13:00:00'
p710
aS'2015-01-30 14:00:00'
p711
aS'2015-01-30 15:00:00'
p712
aS'2015-01-30 16:00:00'
p713
aS'2015-01-30 17:00:00'
p714
aS'2015-01-30 18:00:00'
p715
aS'2015-01-30 19:00:00'
p716
aS'2015-01-30 20:00:00'
p717
aS'2015-01-30 21:00:00'
p718
aS'2015-01-30 23:00:00'
p719
aS'2015-01-31 11:00:00'
p720
aS'2015-01-31 12:00:00'
p721
aS'2015-01-31 13:00:00'
p722
aS'2015-01-31 14:00:00'
p723
aS'2015-01-31 15:00:00'
p724
aS'2015-01-31 16:00:00'
p725
aS'2015-01-31 17:00:00'
p726
aS'2015-01-31 18:00:00'
p727
aS'2015-01-31 20:00:00'
p728
aS'2015-01-31 22:00:00'
p729
aS'2015-01-31 23:00:00'
p730
asg97
g98
sg99
(lp731
Vhttp://scontent-a.cdninstagram.com/hphotos-xaf1/t51.2885-15/s150x150/e15/10932106_768230016599800_602537685_n.jpg
p732
aVhttp://scontent-a.cdninstagram.com/hphotos-xfa1/t51.2885-15/s150x150/e15/10953302_1395865987384248_1818801961_n.jpg
p733
aVhttp://scontent-a.cdninstagram.com/hphotos-xpa1/t51.2885-15/s150x150/e15/925601_1684403108453299_1222951954_n.jpg
p734
aVhttp://scontent-b.cdninstagram.com/hphotos-xaf1/t51.2885-15/s150x150/e15/10950409_1559381764309326_455453241_n.jpg
p735
aVhttp://scontent-b.cdninstagram.com/hphotos-xaf1/t51.2885-15/s150x150/e15/10919577_227616600742165_1811404673_n.jpg
p736
aVhttp://scontent-b.cdninstagram.com/hphotos-xaf1/t51.2885-15/s150x150/e15/10919667_905704796138762_1591895471_n.jpg
p737
aVhttp://scontent-a.cdninstagram.com/hphotos-xaf1/t51.2885-15/s150x150/e15/10959193_806224649444865_294938042_n.jpg
p738
aVhttp://scontent-a.cdninstagram.com/hphotos-xaf1/t51.2885-15/s150x150/e15/10817571_764347310309757_344783249_n.jpg
p739
aVhttp://scontent-b.cdninstagram.com/hphotos-xaf1/t51.2885-15/s150x150/e15/10946464_335565219980187_21362149_n.jpg
p740
aVhttp://scontent-b.cdninstagram.com/hphotos-xfa1/t51.2885-15/s150x150/e15/10914641_375967002582922_1895999323_n.jpg
p741
aVhttp://scontent-a.cdninstagram.com/hphotos-xfa1/t51.2885-15/s150x150/e15/10953017_348840888633667_270267648_n.jpg
p742
aVhttp://scontent-a.cdninstagram.com/hphotos-xfa1/t51.2885-15/s150x150/e15/10569952_573334839470380_451903341_n.jpg
p743
aVhttp://scontent-b.cdninstagram.com/hphotos-xfa1/t51.2885-15/s150x150/e15/10852835_1411371525823168_861867922_n.jpg
p744
aVhttp://scontent-b.cdninstagram.com/hphotos-xap1/t51.2885-15/s150x150/e15/927429_1537297169863645_2128334760_n.jpg
p745
aVhttp://scontent-a.cdninstagram.com/hphotos-xap1/t51.2885-15/s150x150/e15/929245_1539791666306750_236184955_n.jpg
p746
aVhttp://scontent-a.cdninstagram.com/hphotos-xaf1/t51.2885-15/s150x150/e15/10914399_528234487279634_252402652_n.jpg
p747
aVhttp://scontent-a.cdninstagram.com/hphotos-xaf1/t51.2885-15/s150x150/e15/10963881_861051793937844_1215451093_n.jpg
p748
aVhttp://scontent-b.cdninstagram.com/hphotos-xfa1/t51.2885-15/s150x150/e15/10895282_1410767312555070_1082030226_n.jpg
p749
asg119
F-73.997343
sg120
(lp750
I0
aI0
aI1
aI0
aI2
aI1
aI0
aI2
aI1
aI0
aI0
aI1
aI1
aI0
aI0
aI0
aI0
aI1
aI0
aI0
aI1
aI0
aI4
aI0
aI0
aI1
aI0
aI0
aI0
aI2
aI2
aI1
aI1
aI0
aI0
aI1
aI1
aI0
aI1
aI1
aI5
aI0
aI1
aI0
aI1
aI0
aI0
aI0
aI2
aI1
aI3
aI1
aI2
aI1
aI1
aI1
aI1
aI1
aI1
aI1
aI1
aI1
aI1
aI1
aI3
aI1
aI2
aI2
aI3
aI6
aI2
aI1
aI1
aI2
asg122
F40.763597
sg123
S'Pacha NYC'
p751
ssg1
(g5
S'\xd46\x00\x00\x00\x00\x00\x00'
p752
tp753
Rp754
(dp755
g12
(lp756
S'2015-01-26 09:00:00'
p757
aS'2015-01-26 10:00:00'
p758
aS'2015-01-26 11:00:00'
p759
aS'2015-01-26 12:00:00'
p760
aS'2015-01-26 13:00:00'
p761
aS'2015-01-26 14:00:00'
p762
aS'2015-01-26 15:00:00'
p763
aS'2015-01-26 16:00:00'
p764
aS'2015-01-26 17:00:00'
p765
aS'2015-01-26 18:00:00'
p766
aS'2015-01-26 19:00:00'
p767
aS'2015-01-26 20:00:00'
p768
aS'2015-01-26 21:00:00'
p769
aS'2015-01-26 22:00:00'
p770
aS'2015-01-26 23:00:00'
p771
aS'2015-01-27 09:00:00'
p772
aS'2015-01-27 10:00:00'
p773
aS'2015-01-27 11:00:00'
p774
aS'2015-01-27 12:00:00'
p775
aS'2015-01-27 13:00:00'
p776
aS'2015-01-27 14:00:00'
p777
aS'2015-01-27 15:00:00'
p778
aS'2015-01-27 16:00:00'
p779
aS'2015-01-27 17:00:00'
p780
aS'2015-01-27 18:00:00'
p781
aS'2015-01-27 19:00:00'
p782
aS'2015-01-27 20:00:00'
p783
aS'2015-01-27 21:00:00'
p784
aS'2015-01-27 22:00:00'
p785
aS'2015-01-27 23:00:00'
p786
aS'2015-01-29 09:00:00'
p787
aS'2015-01-29 12:00:00'
p788
aS'2015-01-29 13:00:00'
p789
aS'2015-01-29 14:00:00'
p790
aS'2015-01-29 15:00:00'
p791
aS'2015-01-29 16:00:00'
p792
aS'2015-01-29 17:00:00'
p793
aS'2015-01-29 18:00:00'
p794
aS'2015-01-29 19:00:00'
p795
aS'2015-01-28 09:00:00'
p796
aS'2015-01-28 10:00:00'
p797
aS'2015-01-28 11:00:00'
p798
aS'2015-01-28 12:00:00'
p799
aS'2015-01-28 13:00:00'
p800
aS'2015-01-28 14:00:00'
p801
aS'2015-01-28 15:00:00'
p802
aS'2015-01-28 16:00:00'
p803
aS'2015-01-28 17:00:00'
p804
aS'2015-01-28 18:00:00'
p805
aS'2015-01-28 19:00:00'
p806
aS'2015-01-28 20:00:00'
p807
aS'2015-01-28 21:00:00'
p808
aS'2015-01-28 22:00:00'
p809
aS'2015-01-28 23:00:00'
p810
aS'2015-01-29 21:00:00'
p811
aS'2015-01-29 22:00:00'
p812
aS'2015-01-29 23:00:00'
p813
aS'2015-01-30 11:00:00'
p814
aS'2015-01-30 12:00:00'
p815
aS'2015-01-30 14:00:00'
p816
aS'2015-01-30 15:00:00'
p817
aS'2015-01-30 16:00:00'
p818
aS'2015-01-30 17:00:00'
p819
aS'2015-01-30 18:00:00'
p820
aS'2015-01-30 19:00:00'
p821
aS'2015-01-30 21:00:00'
p822
aS'2015-01-30 22:00:00'
p823
aS'2015-01-30 23:00:00'
p824
aS'2015-01-31 09:00:00'
p825
aS'2015-01-31 10:00:00'
p826
aS'2015-01-31 11:00:00'
p827
aS'2015-01-31 12:00:00'
p828
aS'2015-01-31 13:00:00'
p829
aS'2015-01-31 14:00:00'
p830
aS'2015-01-31 15:00:00'
p831
aS'2015-01-31 16:00:00'
p832
aS'2015-01-31 17:00:00'
p833
aS'2015-01-31 18:00:00'
p834
aS'2015-01-31 19:00:00'
p835
aS'2015-01-31 20:00:00'
p836
aS'2015-01-31 21:00:00'
p837
aS'2015-01-31 22:00:00'
p838
aS'2015-01-31 23:00:00'
p839
asg97
g98
sg99
(lp840
Vhttp://scontent-a.cdninstagram.com/hphotos-xaf1/t51.2885-15/s150x150/e15/10963980_473360642818304_871721972_n.jpg
p841
aVhttp://scontent-a.cdninstagram.com/hphotos-xaf1/t51.2885-15/s150x150/e15/10948657_737373716380990_697600259_n.jpg
p842
aVhttp://scontent-b.cdninstagram.com/hphotos-xfa1/t51.2885-15/s150x150/e15/10948874_1533580400244368_953850372_n.jpg
p843
aVhttp://scontent-a.cdninstagram.com/hphotos-xaf1/t51.2885-15/s150x150/e15/10958404_414461405379101_77984914_n.jpg
p844
aVhttp://scontent-a.cdninstagram.com/hphotos-xfa1/t51.2885-15/s150x150/e15/10957382_1603792536502764_1184981867_n.jpg
p845
aVhttp://scontent-a.cdninstagram.com/hphotos-xaf1/t51.2885-15/s150x150/e15/10932402_1037408952942344_468390431_n.jpg
p846
aVhttp://scontent-b.cdninstagram.com/hphotos-xfa1/t51.2885-15/s150x150/e15/10914491_326061737591872_549227082_n.jpg
p847
aVhttp://scontent-b.cdninstagram.com/hphotos-xfa1/t51.2885-15/s150x150/e15/10953107_1570542459824341_1649656183_n.jpg
p848
aVhttp://scontent-b.cdninstagram.com/hphotos-xfa1/t51.2885-15/s150x150/e15/10948877_338545019687756_179802102_n.jpg
p849
aVhttp://scontent-a.cdninstagram.com/hphotos-xaf1/t51.2885-15/s150x150/e15/10549606_1603135699918719_884089318_n.jpg
p850
aVhttp://scontent-a.cdninstagram.com/hphotos-xaf1/t51.2885-15/s150x150/e15/10945189_801838636553017_82928089_n.jpg
p851
aVhttp://scontent-a.cdninstagram.com/hphotos-xfa1/t51.2885-15/s150x150/e15/10948928_1529649237323001_285357069_n.jpg
p852
aVhttp://scontent-a.cdninstagram.com/hphotos-xap1/t51.2885-15/s150x150/e15/925626_393616870815498_161010811_n.jpg
p853
aVhttp://scontent-b.cdninstagram.com/hphotos-xfa1/t51.2885-15/s150x150/e15/10950605_1568508530073570_916859893_n.jpg
p854
aVhttp://scontent-a.cdninstagram.com/hphotos-xfp1/t51.2885-15/s150x150/e15/10597309_1538479516426472_1321952867_n.jpg
p855
aVhttp://scontent-b.cdninstagram.com/hphotos-xaf1/t51.2885-15/s150x150/e15/10963950_1535164916764382_1726833211_n.jpg
p856
aVhttp://scontent-b.cdninstagram.com/hphotos-xaf1/t51.2885-15/s150x150/e15/1799766_625695304197082_1894943373_n.jpg
p857
aVhttp://scontent-a.cdninstagram.com/hphotos-xaf1/t51.2885-15/s150x150/e15/10950412_639586989500773_944063723_n.jpg
p858
asg119
F-73.989576
sg120
(lp859
I2
aI0
aI2
aI1
aI2
aI0
aI3
aI1
aI11
aI14
aI6
aI2
aI0
aI0
aI1
aI0
aI0
aI1
aI1
aI0
aI0
aI0
aI0
aI2
aI1
aI0
aI0
aI0
aI0
aI0
aI2
aI2
aI3
aI2
aI4
aI1
aI2
aI1
aI4
aI0
aI0
aI1
aI0
aI1
aI1
aI1
aI0
aI1
aI1
aI1
aI1
aI3
aI0
aI0
aI4
aI2
aI1
aI1
aI2
aI1
aI1
aI1
aI1
aI1
aI2
aI1
aI1
aI1
aI1
aI2
aI6
aI5
aI8
aI6
aI1
aI6
aI2
aI7
aI1
aI5
aI6
aI3
aI4
asg122
F40.731886
sg123
S'Webster Hall'
p860
ssg1
(g5
S'U\xc6\x05\x00\x00\x00\x00\x00'
p861
tp862
Rp863
(dp864
g12
(lp865
S'2015-01-26 09:00:00'
p866
aS'2015-01-26 10:00:00'
p867
aS'2015-01-26 11:00:00'
p868
aS'2015-01-26 12:00:00'
p869
aS'2015-01-26 13:00:00'
p870
aS'2015-01-26 14:00:00'
p871
aS'2015-01-26 15:00:00'
p872
aS'2015-01-26 16:00:00'
p873
aS'2015-01-26 17:00:00'
p874
aS'2015-01-26 18:00:00'
p875
aS'2015-01-26 19:00:00'
p876
aS'2015-01-26 20:00:00'
p877
aS'2015-01-26 21:00:00'
p878
aS'2015-01-26 22:00:00'
p879
aS'2015-01-26 23:00:00'
p880
aS'2015-01-27 09:00:00'
p881
aS'2015-01-27 10:00:00'
p882
aS'2015-01-27 11:00:00'
p883
aS'2015-01-27 12:00:00'
p884
aS'2015-01-27 13:00:00'
p885
aS'2015-01-27 14:00:00'
p886
aS'2015-01-27 15:00:00'
p887
aS'2015-01-27 16:00:00'
p888
aS'2015-01-27 17:00:00'
p889
aS'2015-01-27 18:00:00'
p890
aS'2015-01-27 19:00:00'
p891
aS'2015-01-27 20:00:00'
p892
aS'2015-01-27 21:00:00'
p893
aS'2015-01-27 22:00:00'
p894
aS'2015-01-27 23:00:00'
p895
aS'2015-01-29 09:00:00'
p896
aS'2015-01-29 10:00:00'
p897
aS'2015-01-29 11:00:00'
p898
aS'2015-01-29 12:00:00'
p899
aS'2015-01-29 13:00:00'
p900
aS'2015-01-29 14:00:00'
p901
aS'2015-01-29 15:00:00'
p902
aS'2015-01-29 16:00:00'
p903
aS'2015-01-29 17:00:00'
p904
aS'2015-01-29 18:00:00'
p905
aS'2015-01-29 19:00:00'
p906
aS'2015-01-28 09:00:00'
p907
aS'2015-01-28 10:00:00'
p908
aS'2015-01-28 11:00:00'
p909
aS'2015-01-28 12:00:00'
p910
aS'2015-01-28 13:00:00'
p911
aS'2015-01-28 14:00:00'
p912
aS'2015-01-28 15:00:00'
p913
aS'2015-01-28 16:00:00'
p914
aS'2015-01-28 17:00:00'
p915
aS'2015-01-28 18:00:00'
p916
aS'2015-01-28 19:00:00'
p917
aS'2015-01-28 20:00:00'
p918
aS'2015-01-28 21:00:00'
p919
aS'2015-01-28 22:00:00'
p920
aS'2015-01-28 23:00:00'
p921
aS'2015-01-29 20:00:00'
p922
aS'2015-01-29 21:00:00'
p923
aS'2015-01-29 22:00:00'
p924
aS'2015-01-29 23:00:00'
p925
aS'2015-01-30 09:00:00'
p926
aS'2015-01-30 10:00:00'
p927
aS'2015-01-30 11:00:00'
p928
aS'2015-01-30 12:00:00'
p929
aS'2015-01-30 13:00:00'
p930
aS'2015-01-30 14:00:00'
p931
aS'2015-01-30 15:00:00'
p932
aS'2015-01-30 16:00:00'
p933
aS'2015-01-30 17:00:00'
p934
aS'2015-01-30 18:00:00'
p935
aS'2015-01-30 19:00:00'
p936
aS'2015-01-30 20:00:00'
p937
aS'2015-01-30 21:00:00'
p938
aS'2015-01-30 22:00:00'
p939
aS'2015-01-30 23:00:00'
p940
aS'2015-01-31 09:00:00'
p941
aS'2015-01-31 10:00:00'
p942
aS'2015-01-31 11:00:00'
p943
aS'2015-01-31 12:00:00'
p944
aS'2015-01-31 13:00:00'
p945
aS'2015-01-31 14:00:00'
p946
aS'2015-01-31 15:00:00'
p947
aS'2015-01-31 16:00:00'
p948
aS'2015-01-31 17:00:00'
p949
aS'2015-01-31 18:00:00'
p950
aS'2015-01-31 19:00:00'
p951
aS'2015-01-31 20:00:00'
p952
aS'2015-01-31 21:00:00'
p953
aS'2015-01-31 22:00:00'
p954
aS'2015-01-31 23:00:00'
p955
asg97
g98
sg99
(lp956
Vhttp://scontent-a.cdninstagram.com/hphotos-xaf1/t51.2885-15/s150x150/e15/10932232_814069165329790_861104725_n.jpg
p957
aVhttp://scontent-b.cdninstagram.com/hphotos-xaf1/t51.2885-15/s150x150/e15/10932043_622359841226830_1724689223_n.jpg
p958
aVhttp://scontent-b.cdninstagram.com/hphotos-xfa1/t51.2885-15/s150x150/e15/10954652_842949362410101_65419948_n.jpg
p959
aVhttp://scontent-b.cdninstagram.com/hphotos-xaf1/t51.2885-15/s150x150/e15/10731765_1552790808309392_1915385097_n.jpg
p960
aVhttp://scontent-a.cdninstagram.com/hphotos-xaf1/t51.2885-15/s150x150/e15/10914172_332173996985460_1836164738_n.jpg
p961
aVhttp://scontent-b.cdninstagram.com/hphotos-xfa1/t51.2885-15/s150x150/e15/10950350_673027172806240_526279051_n.jpg
p962
aVhttp://scontent-b.cdninstagram.com/hphotos-xfa1/t51.2885-15/s150x150/e15/10946255_1766174363608497_1440118297_n.jpg
p963
aVhttp://scontent-a.cdninstagram.com/hphotos-xaf1/t51.2885-15/s150x150/e15/10956597_1540140976253549_1969683486_n.jpg
p964
aVhttp://scontent-b.cdninstagram.com/hphotos-xaf1/t51.2885-15/s150x150/e15/10724896_312517102277671_1313904140_n.jpg
p965
aVhttp://scontent-b.cdninstagram.com/hphotos-xfp1/t51.2885-15/s150x150/e15/10525521_1605509606338841_732891281_n.jpg
p966
aVhttp://scontent-b.cdninstagram.com/hphotos-xaf1/t51.2885-15/s150x150/e15/10957389_770260219717798_759125606_n.jpg
p967
aVhttp://scontent-a.cdninstagram.com/hphotos-xfa1/t51.2885-15/s150x150/e15/10246072_1417385968554255_1724966652_n.jpg
p968
aVhttp://scontent-b.cdninstagram.com/hphotos-xap1/t51.2885-15/s150x150/e15/927411_1533576006922561_1440161708_n.jpg
p969
aVhttp://scontent-a.cdninstagram.com/hphotos-xpa1/t51.2885-15/s150x150/e15/1530641_940137732693528_375922544_n.jpg
p970
aVhttp://scontent-b.cdninstagram.com/hphotos-xaf1/t51.2885-15/s150x150/e15/10948815_1607125429507457_753968238_n.jpg
p971
aVhttp://scontent-b.cdninstagram.com/hphotos-xaf1/t51.2885-15/s150x150/e15/10963866_1593385874224730_2050647283_n.jpg
p972
aVhttp://scontent-b.cdninstagram.com/hphotos-xfa1/t51.2885-15/s150x150/e15/10945214_332742840263875_1975404586_n.jpg
p973
aVhttp://scontent-a.cdninstagram.com/hphotos-xfa1/t51.2885-15/s150x150/e15/10946294_730200003743662_1067913683_n.jpg
p974
asg119
F-73.962973589
sg120
(lp975
I16
aI9
aI19
aI9
aI12
aI13
aI8
aI14
aI8
aI8
aI6
aI10
aI7
aI6
aI4
aI6
aI10
aI1
aI3
aI0
aI6
aI4
aI4
aI10
aI6
aI8
aI10
aI7
aI2
aI3
aI3
aI4
aI9
aI7
aI11
aI9
aI17
aI11
aI12
aI9
aI9
aI0
aI2
aI6
aI6
aI10
aI14
aI6
aI14
aI10
aI6
aI9
aI7
aI3
aI0
aI4
aI5
aI5
aI1
aI9
aI2
aI4
aI8
aI10
aI10
aI7
aI11
aI12
aI15
aI10
aI20
aI24
aI27
aI21
aI5
aI2
aI8
aI5
aI13
aI14
aI17
aI20
aI22
aI36
aI33
aI33
aI20
aI14
aI13
aI10
asg122
F40.779129198
sg123
S'The Metropolitan Museum of Art'
p976
ssg1
(g5
S'\xd6\x98\xc9!\x00\x00\x00\x00'
p977
tp978
Rp979
(dp980
g12
(lp981
S'2015-01-26 09:00:00'
p982
aS'2015-01-26 10:00:00'
p983
aS'2015-01-26 11:00:00'
p984
aS'2015-01-26 12:00:00'
p985
aS'2015-01-26 13:00:00'
p986
aS'2015-01-26 14:00:00'
p987
aS'2015-01-26 15:00:00'
p988
aS'2015-01-26 16:00:00'
p989
aS'2015-01-26 17:00:00'
p990
aS'2015-01-26 18:00:00'
p991
aS'2015-01-26 19:00:00'
p992
aS'2015-01-26 20:00:00'
p993
aS'2015-01-26 21:00:00'
p994
aS'2015-01-26 22:00:00'
p995
aS'2015-01-26 23:00:00'
p996
aS'2015-01-27 09:00:00'
p997
aS'2015-01-27 10:00:00'
p998
aS'2015-01-27 11:00:00'
p999
aS'2015-01-27 12:00:00'
p1000
aS'2015-01-27 13:00:00'
p1001
aS'2015-01-27 14:00:00'
p1002
aS'2015-01-27 15:00:00'
p1003
aS'2015-01-27 16:00:00'
p1004
aS'2015-01-27 17:00:00'
p1005
aS'2015-01-27 18:00:00'
p1006
aS'2015-01-27 19:00:00'
p1007
aS'2015-01-27 20:00:00'
p1008
aS'2015-01-27 21:00:00'
p1009
aS'2015-01-27 22:00:00'
p1010
aS'2015-01-27 23:00:00'
p1011
aS'2015-01-29 10:00:00'
p1012
aS'2015-01-29 11:00:00'
p1013
aS'2015-01-29 12:00:00'
p1014
aS'2015-01-29 13:00:00'
p1015
aS'2015-01-29 14:00:00'
p1016
aS'2015-01-29 15:00:00'
p1017
aS'2015-01-29 16:00:00'
p1018
aS'2015-01-29 17:00:00'
p1019
aS'2015-01-29 19:00:00'
p1020
aS'2015-01-28 09:00:00'
p1021
aS'2015-01-28 10:00:00'
p1022
aS'2015-01-28 11:00:00'
p1023
aS'2015-01-28 12:00:00'
p1024
aS'2015-01-28 13:00:00'
p1025
aS'2015-01-28 14:00:00'
p1026
aS'2015-01-28 15:00:00'
p1027
aS'2015-01-28 16:00:00'
p1028
aS'2015-01-28 17:00:00'
p1029
aS'2015-01-28 18:00:00'
p1030
aS'2015-01-28 19:00:00'
p1031
aS'2015-01-28 20:00:00'
p1032
aS'2015-01-28 21:00:00'
p1033
aS'2015-01-28 22:00:00'
p1034
aS'2015-01-28 23:00:00'
p1035
aS'2015-01-29 20:00:00'
p1036
aS'2015-01-29 21:00:00'
p1037
aS'2015-01-29 23:00:00'
p1038
aS'2015-01-30 09:00:00'
p1039
aS'2015-01-30 10:00:00'
p1040
aS'2015-01-30 11:00:00'
p1041
aS'2015-01-30 12:00:00'
p1042
aS'2015-01-30 13:00:00'
p1043
aS'2015-01-30 14:00:00'
p1044
aS'2015-01-30 15:00:00'
p1045
aS'2015-01-30 16:00:00'
p1046
aS'2015-01-30 17:00:00'
p1047
aS'2015-01-30 18:00:00'
p1048
aS'2015-01-30 19:00:00'
p1049
aS'2015-01-30 21:00:00'
p1050
aS'2015-01-31 10:00:00'
p1051
aS'2015-01-31 12:00:00'
p1052
aS'2015-01-31 13:00:00'
p1053
aS'2015-01-31 14:00:00'
p1054
aS'2015-01-31 15:00:00'
p1055
aS'2015-01-31 16:00:00'
p1056
aS'2015-01-31 17:00:00'
p1057
aS'2015-01-31 18:00:00'
p1058
aS'2015-01-31 19:00:00'
p1059
aS'2015-01-31 22:00:00'
p1060
aS'2015-01-31 23:00:00'
p1061
asg97
g98
sg99
(lp1062
Vhttp://scontent-b.cdninstagram.com/hphotos-xfa1/t51.2885-15/s150x150/e15/10932185_953229161354575_1787284610_n.jpg
p1063
aVhttp://scontent-b.cdninstagram.com/hphotos-xfa1/t51.2885-15/s150x150/e15/10894913_432996946862783_479532834_n.jpg
p1064
aVhttp://scontent-b.cdninstagram.com/hphotos-xfa1/t51.2885-15/s150x150/e15/10952939_943334025676888_1490659404_n.jpg
p1065
aVhttp://scontent-b.cdninstagram.com/hphotos-xfa1/t51.2885-15/s150x150/e15/10949042_691287967648946_1752850241_n.jpg
p1066
aVhttp://scontent-b.cdninstagram.com/hphotos-xfa1/t51.2885-15/s150x150/e15/10895486_430386613780179_441106203_n.jpg
p1067
aVhttp://scontent-a.cdninstagram.com/hphotos-xaf1/t51.2885-15/s150x150/e15/10953634_939896146022871_1405243532_n.jpg
p1068
aVhttp://scontent-a.cdninstagram.com/hphotos-xaf1/t51.2885-15/s150x150/e15/10948929_677577945684359_258293350_n.jpg
p1069
aVhttp://scontent-a.cdninstagram.com/hphotos-xap1/t51.2885-15/s150x150/e15/10499253_328653604004749_1533429046_n.jpg
p1070
aVhttp://scontent-b.cdninstagram.com/hphotos-xaf1/t51.2885-15/s150x150/e15/10963866_812372235501856_2126692731_n.jpg
p1071
aVhttp://scontent-a.cdninstagram.com/hphotos-xfa1/t51.2885-15/s150x150/e15/10950629_923774304334150_740219651_n.jpg
p1072
aVhttp://scontent-b.cdninstagram.com/hphotos-xaf1/t51.2885-15/s150x150/e15/10948885_635321843263122_593333817_n.jpg
p1073
aVhttp://scontent-b.cdninstagram.com/hphotos-xfa1/t51.2885-15/s150x150/e15/10946366_604475626319377_1210677107_n.jpg
p1074
aVhttp://scontent-a.cdninstagram.com/hphotos-xpf1/t51.2885-15/s150x150/e15/10748231_1553289048291381_2100745533_n.jpg
p1075
aVhttp://scontent-a.cdninstagram.com/hphotos-xfa1/t51.2885-15/s150x150/e15/10957325_411332982364472_400101768_n.jpg
p1076
aVhttp://scontent-a.cdninstagram.com/hphotos-xfp1/t51.2885-15/s150x150/e15/10597321_851124351616192_1235852506_n.jpg
p1077
aVhttp://scontent-b.cdninstagram.com/hphotos-xpa1/t51.2885-15/s150x150/e15/10518160_1556973417876498_290978505_n.jpg
p1078
aVhttp://scontent-b.cdninstagram.com/hphotos-xpf1/t51.2885-15/s150x150/e15/10748443_340327386166549_104572488_n.jpg
p1079
aVhttp://scontent-b.cdninstagram.com/hphotos-xaf1/t51.2885-15/s150x150/e15/10948743_822383887803148_1879910929_n.jpg
p1080
asg119
F-73.995959
sg120
(lp1081
I1
aI4
aI4
aI4
aI1
aI2
aI0
aI2
aI2
aI0
aI2
aI1
aI1
aI2
aI0
aI0
aI0
aI2
aI0
aI0
aI4
aI1
aI1
aI1
aI1
aI0
aI0
aI0
aI0
aI0
aI1
aI4
aI1
aI4
aI3
aI2
aI4
aI2
aI1
aI0
aI1
aI0
aI2
aI2
aI1
aI2
aI2
aI0
aI2
aI1
aI2
aI1
aI0
aI0
aI1
aI1
aI1
aI2
aI1
aI3
aI2
aI3
aI5
aI2
aI4
aI3
aI2
aI1
aI1
aI4
aI2
aI7
aI5
aI5
aI4
aI8
aI2
aI1
aI2
aI1
asg122
F40.719676
sg123
S'Two Hands NYC'
p1082
ssg1
(g5
S'\xe1\x87\x00\x00\x00\x00\x00\x00'
p1083
tp1084
Rp1085
(dp1086
g12
(lp1087
S'2015-01-26 09:00:00'
p1088
aS'2015-01-26 10:00:00'
p1089
aS'2015-01-26 11:00:00'
p1090
aS'2015-01-26 12:00:00'
p1091
aS'2015-01-26 13:00:00'
p1092
aS'2015-01-26 14:00:00'
p1093
aS'2015-01-26 15:00:00'
p1094
aS'2015-01-26 16:00:00'
p1095
aS'2015-01-26 17:00:00'
p1096
aS'2015-01-26 18:00:00'
p1097
aS'2015-01-26 19:00:00'
p1098
aS'2015-01-26 20:00:00'
p1099
aS'2015-01-26 21:00:00'
p1100
aS'2015-01-26 22:00:00'
p1101
aS'2015-01-26 23:00:00'
p1102
aS'2015-01-27 09:00:00'
p1103
aS'2015-01-27 10:00:00'
p1104
aS'2015-01-27 11:00:00'
p1105
aS'2015-01-27 12:00:00'
p1106
aS'2015-01-27 13:00:00'
p1107
aS'2015-01-27 14:00:00'
p1108
aS'2015-01-27 15:00:00'
p1109
aS'2015-01-27 16:00:00'
p1110
aS'2015-01-27 17:00:00'
p1111
aS'2015-01-27 18:00:00'
p1112
aS'2015-01-27 19:00:00'
p1113
aS'2015-01-27 20:00:00'
p1114
aS'2015-01-27 21:00:00'
p1115
aS'2015-01-27 22:00:00'
p1116
aS'2015-01-27 23:00:00'
p1117
aS'2015-01-29 09:00:00'
p1118
aS'2015-01-29 11:00:00'
p1119
aS'2015-01-29 12:00:00'
p1120
aS'2015-01-29 13:00:00'
p1121
aS'2015-01-29 14:00:00'
p1122
aS'2015-01-29 15:00:00'
p1123
aS'2015-01-29 16:00:00'
p1124
aS'2015-01-29 17:00:00'
p1125
aS'2015-01-29 18:00:00'
p1126
aS'2015-01-28 09:00:00'
p1127
aS'2015-01-28 10:00:00'
p1128
aS'2015-01-28 11:00:00'
p1129
aS'2015-01-28 12:00:00'
p1130
aS'2015-01-28 13:00:00'
p1131
aS'2015-01-28 14:00:00'
p1132
aS'2015-01-28 15:00:00'
p1133
aS'2015-01-28 16:00:00'
p1134
aS'2015-01-28 17:00:00'
p1135
aS'2015-01-28 18:00:00'
p1136
aS'2015-01-28 19:00:00'
p1137
aS'2015-01-28 20:00:00'
p1138
aS'2015-01-28 21:00:00'
p1139
aS'2015-01-28 22:00:00'
p1140
aS'2015-01-28 23:00:00'
p1141
aS'2015-01-29 20:00:00'
p1142
aS'2015-01-29 21:00:00'
p1143
aS'2015-01-29 22:00:00'
p1144
aS'2015-01-29 23:00:00'
p1145
aS'2015-01-30 09:00:00'
p1146
aS'2015-01-30 11:00:00'
p1147
aS'2015-01-30 13:00:00'
p1148
aS'2015-01-30 14:00:00'
p1149
aS'2015-01-30 15:00:00'
p1150
aS'2015-01-30 16:00:00'
p1151
aS'2015-01-30 17:00:00'
p1152
aS'2015-01-30 18:00:00'
p1153
aS'2015-01-30 19:00:00'
p1154
aS'2015-01-30 20:00:00'
p1155
aS'2015-01-30 21:00:00'
p1156
aS'2015-01-30 22:00:00'
p1157
aS'2015-01-30 23:00:00'
p1158
aS'2015-01-31 10:00:00'
p1159
aS'2015-01-31 11:00:00'
p1160
aS'2015-01-31 12:00:00'
p1161
aS'2015-01-31 13:00:00'
p1162
aS'2015-01-31 14:00:00'
p1163
aS'2015-01-31 15:00:00'
p1164
aS'2015-01-31 16:00:00'
p1165
aS'2015-01-31 17:00:00'
p1166
aS'2015-01-31 19:00:00'
p1167
aS'2015-01-31 20:00:00'
p1168
aS'2015-01-31 21:00:00'
p1169
aS'2015-01-31 22:00:00'
p1170
aS'2015-01-31 23:00:00'
p1171
asg97
g98
sg99
(lp1172
Vhttp://scontent-a.cdninstagram.com/hphotos-xfp1/t51.2885-15/s150x150/e15/1168411_744573688991869_236138608_n.jpg
p1173
aVhttp://scontent-a.cdninstagram.com/hphotos-xaf1/t51.2885-15/s150x150/e15/10956856_326774527512608_1677203561_n.jpg
p1174
aVhttp://scontent-b.cdninstagram.com/hphotos-xfa1/t51.2885-15/s150x150/e15/10952603_1602436079986210_1625001147_n.jpg
p1175
aVhttp://scontent-b.cdninstagram.com/hphotos-xaf1/t51.2885-15/s150x150/e15/10958512_1544340252489463_1565496438_n.jpg
p1176
aVhttp://scontent-b.cdninstagram.com/hphotos-xfa1/t51.2885-15/s150x150/e15/10731815_789598811122438_1324206701_n.jpg
p1177
aVhttp://scontent-a.cdninstagram.com/hphotos-xaf1/t51.2885-15/s150x150/e15/10948618_330339233842694_166860408_n.jpg
p1178
aVhttp://scontent-a.cdninstagram.com/hphotos-xaf1/t51.2885-15/s150x150/e15/10950336_1409212286044203_1509964829_n.jpg
p1179
aVhttp://scontent-b.cdninstagram.com/hphotos-xpa1/t51.2885-15/s150x150/e15/924623_353190718212352_316427765_n.jpg
p1180
aVhttp://scontent-a.cdninstagram.com/hphotos-xaf1/t51.2885-15/s150x150/e15/10952719_631522483643745_2139521472_n.jpg
p1181
aVhttp://scontent-a.cdninstagram.com/hphotos-xaf1/t51.2885-15/s150x150/e15/10945288_1693015657591881_1115492711_n.jpg
p1182
aVhttp://scontent-b.cdninstagram.com/hphotos-xfa1/t51.2885-15/s150x150/e15/10843880_1543063059297263_1782128702_n.jpg
p1183
aVhttp://scontent-a.cdninstagram.com/hphotos-xaf1/t51.2885-15/s150x150/e15/10950576_318099955065823_1549416206_n.jpg
p1184
aVhttp://scontent-b.cdninstagram.com/hphotos-xap1/t51.2885-15/s150x150/e15/10175231_740640816031113_142304252_n.jpg
p1185
aVhttp://scontent-b.cdninstagram.com/hphotos-xfa1/t51.2885-15/s150x150/e15/10948709_1391469764494099_418455683_n.jpg
p1186
aVhttp://scontent-b.cdninstagram.com/hphotos-xpa1/t51.2885-15/s150x150/e15/1530632_790012444426057_805436711_n.jpg
p1187
aVhttp://scontent-b.cdninstagram.com/hphotos-xaf1/t51.2885-15/s150x150/e15/10914433_893377797361023_1263884235_n.jpg
p1188
aVhttp://scontent-b.cdninstagram.com/hphotos-xaf1/t51.2885-15/s150x150/e15/10948803_1377874882522964_1867225627_n.jpg
p1189
aVhttp://scontent-b.cdninstagram.com/hphotos-xfa1/t51.2885-15/s150x150/e15/10954859_726242994140282_1273929041_n.jpg
p1190
asg119
F-73.988202211
sg120
(lp1191
I1
aI0
aI2
aI1
aI4
aI1
aI1
aI2
aI3
aI5
aI2
aI5
aI2
aI3
aI1
aI2
aI1
aI2
aI2
aI1
aI10
aI3
aI4
aI0
aI3
aI5
aI2
aI1
aI4
aI3
aI2
aI1
aI4
aI3
aI4
aI2
aI3
aI1
aI1
aI0
aI2
aI3
aI2
aI1
aI2
aI1
aI0
aI0
aI0
aI5
aI0
aI2
aI0
aI4
aI6
aI1
aI4
aI4
aI4
aI1
aI3
aI2
aI5
aI3
aI1
aI2
aI2
aI3
aI3
aI1
aI4
aI1
aI4
aI3
aI5
aI3
aI3
aI1
aI8
aI5
aI5
aI5
aI3
aI1
asg122
F40.745821963
sg123
S'Ace Hotel New York'
p1192
ssg1
(g5
S'\xe6\xf9\x02\x00\x00\x00\x00\x00'
p1193
tp1194
Rp1195
(dp1196
g12
(lp1197
S'2015-01-26 09:00:00'
p1198
aS'2015-01-26 10:00:00'
p1199
aS'2015-01-26 11:00:00'
p1200
aS'2015-01-26 12:00:00'
p1201
aS'2015-01-26 13:00:00'
p1202
aS'2015-01-26 14:00:00'
p1203
aS'2015-01-26 15:00:00'
p1204
aS'2015-01-26 16:00:00'
p1205
aS'2015-01-26 17:00:00'
p1206
aS'2015-01-26 18:00:00'
p1207
aS'2015-01-26 19:00:00'
p1208
aS'2015-01-26 20:00:00'
p1209
aS'2015-01-26 21:00:00'
p1210
aS'2015-01-26 22:00:00'
p1211
aS'2015-01-26 23:00:00'
p1212
aS'2015-01-27 09:00:00'
p1213
aS'2015-01-27 10:00:00'
p1214
aS'2015-01-27 11:00:00'
p1215
aS'2015-01-27 12:00:00'
p1216
aS'2015-01-27 13:00:00'
p1217
aS'2015-01-27 14:00:00'
p1218
aS'2015-01-27 15:00:00'
p1219
aS'2015-01-27 16:00:00'
p1220
aS'2015-01-27 17:00:00'
p1221
aS'2015-01-27 18:00:00'
p1222
aS'2015-01-27 19:00:00'
p1223
aS'2015-01-27 20:00:00'
p1224
aS'2015-01-27 21:00:00'
p1225
aS'2015-01-27 22:00:00'
p1226
aS'2015-01-27 23:00:00'
p1227
aS'2015-01-29 09:00:00'
p1228
aS'2015-01-29 10:00:00'
p1229
aS'2015-01-29 11:00:00'
p1230
aS'2015-01-29 12:00:00'
p1231
aS'2015-01-29 13:00:00'
p1232
aS'2015-01-29 14:00:00'
p1233
aS'2015-01-29 15:00:00'
p1234
aS'2015-01-29 16:00:00'
p1235
aS'2015-01-29 17:00:00'
p1236
aS'2015-01-29 18:00:00'
p1237
aS'2015-01-29 19:00:00'
p1238
aS'2015-01-28 09:00:00'
p1239
aS'2015-01-28 10:00:00'
p1240
aS'2015-01-28 11:00:00'
p1241
aS'2015-01-28 12:00:00'
p1242
aS'2015-01-28 13:00:00'
p1243
aS'2015-01-28 14:00:00'
p1244
aS'2015-01-28 15:00:00'
p1245
aS'2015-01-28 16:00:00'
p1246
aS'2015-01-28 17:00:00'
p1247
aS'2015-01-28 18:00:00'
p1248
aS'2015-01-28 19:00:00'
p1249
aS'2015-01-28 20:00:00'
p1250
aS'2015-01-28 21:00:00'
p1251
aS'2015-01-28 22:00:00'
p1252
aS'2015-01-28 23:00:00'
p1253
aS'2015-01-29 20:00:00'
p1254
aS'2015-01-29 21:00:00'
p1255
aS'2015-01-29 22:00:00'
p1256
aS'2015-01-29 23:00:00'
p1257
aS'2015-01-30 09:00:00'
p1258
aS'2015-01-30 10:00:00'
p1259
aS'2015-01-30 11:00:00'
p1260
aS'2015-01-30 12:00:00'
p1261
aS'2015-01-30 13:00:00'
p1262
aS'2015-01-30 14:00:00'
p1263
aS'2015-01-30 15:00:00'
p1264
aS'2015-01-30 16:00:00'
p1265
aS'2015-01-30 17:00:00'
p1266
aS'2015-01-30 18:00:00'
p1267
aS'2015-01-30 19:00:00'
p1268
aS'2015-01-30 20:00:00'
p1269
aS'2015-01-30 21:00:00'
p1270
aS'2015-01-30 22:00:00'
p1271
aS'2015-01-30 23:00:00'
p1272
aS'2015-01-31 09:00:00'
p1273
aS'2015-01-31 10:00:00'
p1274
aS'2015-01-31 11:00:00'
p1275
aS'2015-01-31 12:00:00'
p1276
aS'2015-01-31 13:00:00'
p1277
aS'2015-01-31 14:00:00'
p1278
aS'2015-01-31 15:00:00'
p1279
aS'2015-01-31 16:00:00'
p1280
aS'2015-01-31 17:00:00'
p1281
aS'2015-01-31 18:00:00'
p1282
aS'2015-01-31 19:00:00'
p1283
aS'2015-01-31 20:00:00'
p1284
aS'2015-01-31 21:00:00'
p1285
aS'2015-01-31 22:00:00'
p1286
aS'2015-01-31 23:00:00'
p1287
asg97
g98
sg99
(lp1288
Vhttp://scontent-b.cdninstagram.com/hphotos-xaf1/t51.2885-15/s150x150/e15/10895317_1611355915749066_1067850283_n.jpg
p1289
aVhttp://scontent-a.cdninstagram.com/hphotos-xfa1/t51.2885-15/s150x150/e15/10731788_1009839449046143_2049146948_n.jpg
p1290
aVhttp://scontent-a.cdninstagram.com/hphotos-xfa1/t51.2885-15/s150x150/e15/10894967_432494003570711_540418287_n.jpg
p1291
aVhttp://scontent-b.cdninstagram.com/hphotos-xfa1/t51.2885-15/s150x150/e15/10946246_782752501779857_2049252900_n.jpg
p1292
aVhttp://scontent-a.cdninstagram.com/hphotos-xaf1/t51.2885-15/s150x150/e15/10932402_782367338485711_157236957_n.jpg
p1293
aVhttp://scontent-a.cdninstagram.com/hphotos-xap1/t51.2885-15/s150x150/e15/10499280_341491369379500_1272190403_n.jpg
p1294
aVhttp://scontent-b.cdninstagram.com/hphotos-xpa1/t51.2885-15/s150x150/e15/1515692_1592195420998774_630239918_n.jpg
p1295
aVhttp://scontent-b.cdninstagram.com/hphotos-xaf1/t51.2885-15/s150x150/e15/10957353_655001407943931_1502709886_n.jpg
p1296
aVhttp://scontent-a.cdninstagram.com/hphotos-xaf1/t51.2885-15/s150x150/e15/10948999_771657486236645_335749932_n.jpg
p1297
aVhttp://scontent-b.cdninstagram.com/hphotos-xaf1/t51.2885-15/s150x150/e15/10953568_365595490291503_1154452339_n.jpg
p1298
aVhttp://scontent-b.cdninstagram.com/hphotos-xfa1/t51.2885-15/s150x150/e15/10952939_407742546068266_529434235_n.jpg
p1299
aVhttp://scontent-b.cdninstagram.com/hphotos-xaf1/t51.2885-15/s150x150/e15/10945183_1609420935954552_1900468936_n.jpg
p1300
aVhttp://scontent-b.cdninstagram.com/hphotos-xaf1/t51.2885-15/s150x150/e15/10946662_988427634519986_1736767882_n.jpg
p1301
aVhttp://scontent-a.cdninstagram.com/hphotos-xap1/t51.2885-15/s150x150/e15/1889116_1539712939613775_802112420_n.jpg
p1302
aVhttp://scontent-b.cdninstagram.com/hphotos-xaf1/t51.2885-15/s150x150/e15/10948855_383077138529102_1884873921_n.jpg
p1303
aVhttp://scontent-b.cdninstagram.com/hphotos-xfa1/t51.2885-15/s150x150/e15/10948502_434038693419357_283599827_n.jpg
p1304
aVhttp://scontent-b.cdninstagram.com/hphotos-xaf1/t51.2885-15/s150x150/e15/10914564_771057196276516_1687832784_n.jpg
p1305
aVhttp://scontent-a.cdninstagram.com/hphotos-xpf1/t51.2885-15/s150x150/e15/1941167_1400812716887258_1632438968_n.jpg
p1306
asg119
F-73.9835827
sg120
(lp1307
I2
aI3
aI1
aI0
aI2
aI1
aI3
aI15
aI8
aI4
aI2
aI3
aI4
aI1
aI1
aI2
aI1
aI2
aI4
aI2
aI1
aI1
aI7
aI4
aI2
aI8
aI3
aI5
aI4
aI8
aI2
aI5
aI3
aI3
aI6
aI4
aI4
aI3
aI4
aI2
aI3
aI3
aI0
aI0
aI2
aI7
aI5
aI3
aI4
aI1
aI4
aI7
aI8
aI3
aI0
aI4
aI12
aI6
aI9
aI7
aI1
aI2
aI2
aI1
aI2
aI6
aI4
aI3
aI3
aI7
aI2
aI4
aI7
aI5
aI8
aI1
aI5
aI2
aI3
aI6
aI6
aI9
aI7
aI7
aI7
aI5
aI10
aI8
aI10
aI8
asg122
F40.772441637
sg123
S'The Metropolitan Opera'
p1308
ssg1
(g5
S'\xf5\xd2-\x00\x00\x00\x00\x00'
p1309
tp1310
Rp1311
(dp1312
g12
(lp1313
S'2015-01-26 09:00:00'
p1314
aS'2015-01-26 10:00:00'
p1315
aS'2015-01-26 11:00:00'
p1316
aS'2015-01-26 12:00:00'
p1317
aS'2015-01-26 13:00:00'
p1318
aS'2015-01-26 14:00:00'
p1319
aS'2015-01-26 15:00:00'
p1320
aS'2015-01-26 16:00:00'
p1321
aS'2015-01-26 17:00:00'
p1322
aS'2015-01-26 18:00:00'
p1323
aS'2015-01-26 19:00:00'
p1324
aS'2015-01-26 20:00:00'
p1325
aS'2015-01-26 21:00:00'
p1326
aS'2015-01-26 22:00:00'
p1327
aS'2015-01-26 23:00:00'
p1328
aS'2015-01-27 09:00:00'
p1329
aS'2015-01-27 10:00:00'
p1330
aS'2015-01-27 11:00:00'
p1331
aS'2015-01-27 12:00:00'
p1332
aS'2015-01-27 13:00:00'
p1333
aS'2015-01-27 14:00:00'
p1334
aS'2015-01-27 15:00:00'
p1335
aS'2015-01-27 16:00:00'
p1336
aS'2015-01-27 17:00:00'
p1337
aS'2015-01-27 18:00:00'
p1338
aS'2015-01-27 19:00:00'
p1339
aS'2015-01-27 20:00:00'
p1340
aS'2015-01-27 21:00:00'
p1341
aS'2015-01-27 22:00:00'
p1342
aS'2015-01-27 23:00:00'
p1343
aS'2015-01-29 10:00:00'
p1344
aS'2015-01-29 12:00:00'
p1345
aS'2015-01-29 13:00:00'
p1346
aS'2015-01-29 14:00:00'
p1347
aS'2015-01-29 16:00:00'
p1348
aS'2015-01-29 18:00:00'
p1349
aS'2015-01-29 19:00:00'
p1350
aS'2015-01-28 09:00:00'
p1351
aS'2015-01-28 10:00:00'
p1352
aS'2015-01-28 11:00:00'
p1353
aS'2015-01-28 12:00:00'
p1354
aS'2015-01-28 13:00:00'
p1355
aS'2015-01-28 14:00:00'
p1356
aS'2015-01-28 15:00:00'
p1357
aS'2015-01-28 16:00:00'
p1358
aS'2015-01-28 17:00:00'
p1359
aS'2015-01-28 18:00:00'
p1360
aS'2015-01-28 19:00:00'
p1361
aS'2015-01-28 20:00:00'
p1362
aS'2015-01-28 21:00:00'
p1363
aS'2015-01-28 22:00:00'
p1364
aS'2015-01-28 23:00:00'
p1365
aS'2015-01-29 21:00:00'
p1366
aS'2015-01-29 22:00:00'
p1367
aS'2015-01-29 23:00:00'
p1368
aS'2015-01-30 09:00:00'
p1369
aS'2015-01-30 11:00:00'
p1370
aS'2015-01-30 12:00:00'
p1371
aS'2015-01-30 13:00:00'
p1372
aS'2015-01-30 14:00:00'
p1373
aS'2015-01-30 15:00:00'
p1374
aS'2015-01-30 17:00:00'
p1375
aS'2015-01-30 18:00:00'
p1376
aS'2015-01-30 19:00:00'
p1377
aS'2015-01-30 20:00:00'
p1378
aS'2015-01-30 23:00:00'
p1379
aS'2015-01-31 10:00:00'
p1380
aS'2015-01-31 11:00:00'
p1381
aS'2015-01-31 13:00:00'
p1382
aS'2015-01-31 15:00:00'
p1383
aS'2015-01-31 16:00:00'
p1384
aS'2015-01-31 17:00:00'
p1385
aS'2015-01-31 18:00:00'
p1386
aS'2015-01-31 19:00:00'
p1387
aS'2015-01-31 20:00:00'
p1388
aS'2015-01-31 21:00:00'
p1389
aS'2015-01-31 22:00:00'
p1390
aS'2015-01-31 23:00:00'
p1391
asg97
g98
sg99
(lp1392
Vhttp://scontent-b.cdninstagram.com/hphotos-xaf1/t51.2885-15/s150x150/e15/10946643_758396220904570_124014395_n.jpg
p1393
aVhttp://scontent-a.cdninstagram.com/hphotos-xpf1/t51.2885-15/s150x150/e15/10522311_809581699114149_1406161858_n.jpg
p1394
aVhttp://scontent-a.cdninstagram.com/hphotos-xaf1/t51.2885-15/s150x150/e15/10903449_895500070481350_1481860705_n.jpg
p1395
aVhttp://scontent-a.cdninstagram.com/hphotos-xfa1/t51.2885-15/s150x150/e15/10946486_591112874356884_1476325403_n.jpg
p1396
aVhttp://scontent-b.cdninstagram.com/hphotos-xaf1/t51.2885-15/s150x150/e15/10957116_1595085920728745_1919630676_n.jpg
p1397
aVhttp://scontent-b.cdninstagram.com/hphotos-xaf1/t51.2885-15/s150x150/e15/10914433_585518844916045_1404463688_n.jpg
p1398
aVhttp://scontent-b.cdninstagram.com/hphotos-xaf1/t51.2885-15/s150x150/e15/10890528_330096997196525_511806619_n.jpg
p1399
aVhttp://scontent-a.cdninstagram.com/hphotos-xfa1/t51.2885-15/s150x150/e15/10946396_644134019047178_1247807853_n.jpg
p1400
aVhttp://scontent-b.cdninstagram.com/hphotos-xfa1/t51.2885-15/s150x150/e15/10895360_704367169680194_2082959267_n.jpg
p1401
aVhttp://scontent-a.cdninstagram.com/hphotos-xpa1/t51.2885-15/s150x150/e15/10520378_885141531508082_1146013807_n.jpg
p1402
aVhttp://scontent-a.cdninstagram.com/hphotos-xfa1/t51.2885-15/s150x150/e15/10932395_358202824382423_314262217_n.jpg
p1403
aVhttp://scontent-a.cdninstagram.com/hphotos-xaf1/t51.2885-15/s150x150/e15/10950402_406225572871035_1834658972_n.jpg
p1404
aVhttp://scontent-b.cdninstagram.com/hphotos-xfa1/t51.2885-15/s150x150/e15/10948877_875975555787712_79161407_n.jpg
p1405
aVhttp://scontent-b.cdninstagram.com/hphotos-xaf1/t51.2885-15/s150x150/e15/10948921_815547661814386_1264874215_n.jpg
p1406
aVhttp://scontent-b.cdninstagram.com/hphotos-xaf1/t51.2885-15/s150x150/e15/10954242_332714173595980_1318314957_n.jpg
p1407
aVhttp://scontent-a.cdninstagram.com/hphotos-xaf1/t51.2885-15/s150x150/e15/10958244_1634331796795080_2055320416_n.jpg
p1408
aVhttp://scontent-b.cdninstagram.com/hphotos-xfa1/t51.2885-15/s150x150/e15/10914443_421839924652018_1159471363_n.jpg
p1409
aVhttp://scontent-a.cdninstagram.com/hphotos-xfa1/t51.2885-15/s150x150/e15/1742632_742139492559669_1573900911_n.jpg
p1410
asg119
F-73.973529611
sg120
(lp1411
I1
aI0
aI0
aI0
aI0
aI1
aI1
aI1
aI1
aI1
aI1
aI1
aI1
aI1
aI0
aI2
aI1
aI1
aI2
aI2
aI0
aI1
aI2
aI2
aI0
aI0
aI1
aI0
aI0
aI0
aI1
aI2
aI1
aI1
aI2
aI2
aI1
aI0
aI0
aI1
aI1
aI0
aI1
aI2
aI0
aI1
aI0
aI0
aI1
aI1
aI0
aI0
aI1
aI1
aI1
aI1
aI1
aI1
aI2
aI1
aI2
aI1
aI1
aI1
aI1
aI2
aI1
aI1
aI1
aI1
aI3
aI2
aI3
aI9
aI9
aI9
aI5
aI7
asg122
F40.756519322
sg123
S'Waldorf Astoria New York'
p1412
ssg1
(g5
S'\xff\x02\x00\x00\x00\x00\x00\x00'
p1413
tp1414
Rp1415
(dp1416
g12
(lp1417
S'2015-01-26 09:00:00'
p1418
aS'2015-01-26 10:00:00'
p1419
aS'2015-01-26 11:00:00'
p1420
aS'2015-01-26 12:00:00'
p1421
aS'2015-01-26 13:00:00'
p1422
aS'2015-01-26 14:00:00'
p1423
aS'2015-01-26 15:00:00'
p1424
aS'2015-01-26 16:00:00'
p1425
aS'2015-01-26 17:00:00'
p1426
aS'2015-01-26 18:00:00'
p1427
aS'2015-01-26 19:00:00'
p1428
aS'2015-01-26 20:00:00'
p1429
aS'2015-01-26 21:00:00'
p1430
aS'2015-01-26 22:00:00'
p1431
aS'2015-01-26 23:00:00'
p1432
aS'2015-01-27 09:00:00'
p1433
aS'2015-01-27 10:00:00'
p1434
aS'2015-01-27 11:00:00'
p1435
aS'2015-01-27 12:00:00'
p1436
aS'2015-01-27 13:00:00'
p1437
aS'2015-01-27 14:00:00'
p1438
aS'2015-01-27 15:00:00'
p1439
aS'2015-01-27 16:00:00'
p1440
aS'2015-01-27 17:00:00'
p1441
aS'2015-01-27 18:00:00'
p1442
aS'2015-01-27 19:00:00'
p1443
aS'2015-01-27 20:00:00'
p1444
aS'2015-01-27 21:00:00'
p1445
aS'2015-01-27 22:00:00'
p1446
aS'2015-01-27 23:00:00'
p1447
aS'2015-01-29 09:00:00'
p1448
aS'2015-01-29 10:00:00'
p1449
aS'2015-01-29 11:00:00'
p1450
aS'2015-01-29 12:00:00'
p1451
aS'2015-01-29 14:00:00'
p1452
aS'2015-01-29 15:00:00'
p1453
aS'2015-01-29 16:00:00'
p1454
aS'2015-01-29 19:00:00'
p1455
aS'2015-01-28 09:00:00'
p1456
aS'2015-01-28 10:00:00'
p1457
aS'2015-01-28 11:00:00'
p1458
aS'2015-01-28 12:00:00'
p1459
aS'2015-01-28 13:00:00'
p1460
aS'2015-01-28 14:00:00'
p1461
aS'2015-01-28 15:00:00'
p1462
aS'2015-01-28 16:00:00'
p1463
aS'2015-01-28 17:00:00'
p1464
aS'2015-01-28 18:00:00'
p1465
aS'2015-01-28 19:00:00'
p1466
aS'2015-01-28 20:00:00'
p1467
aS'2015-01-28 21:00:00'
p1468
aS'2015-01-28 22:00:00'
p1469
aS'2015-01-28 23:00:00'
p1470
aS'2015-01-29 20:00:00'
p1471
aS'2015-01-29 21:00:00'
p1472
aS'2015-01-29 22:00:00'
p1473
aS'2015-01-29 23:00:00'
p1474
aS'2015-01-30 09:00:00'
p1475
aS'2015-01-30 10:00:00'
p1476
aS'2015-01-30 11:00:00'
p1477
aS'2015-01-30 12:00:00'
p1478
aS'2015-01-30 13:00:00'
p1479
aS'2015-01-30 14:00:00'
p1480
aS'2015-01-30 16:00:00'
p1481
aS'2015-01-30 18:00:00'
p1482
aS'2015-01-30 19:00:00'
p1483
aS'2015-01-30 20:00:00'
p1484
aS'2015-01-30 21:00:00'
p1485
aS'2015-01-30 22:00:00'
p1486
aS'2015-01-30 23:00:00'
p1487
aS'2015-01-31 10:00:00'
p1488
aS'2015-01-31 11:00:00'
p1489
aS'2015-01-31 12:00:00'
p1490
aS'2015-01-31 13:00:00'
p1491
aS'2015-01-31 14:00:00'
p1492
aS'2015-01-31 15:00:00'
p1493
aS'2015-01-31 16:00:00'
p1494
aS'2015-01-31 17:00:00'
p1495
aS'2015-01-31 18:00:00'
p1496
aS'2015-01-31 19:00:00'
p1497
aS'2015-01-31 20:00:00'
p1498
aS'2015-01-31 21:00:00'
p1499
aS'2015-01-31 22:00:00'
p1500
aS'2015-01-31 23:00:00'
p1501
asg97
g98
sg99
(lp1502
Vhttp://scontent-b.cdninstagram.com/hphotos-xpf1/t51.2885-15/s150x150/e15/10533605_609522155815795_330893471_n.jpg
p1503
aVhttp://scontent-b.cdninstagram.com/hphotos-xfa1/t51.2885-15/s150x150/e15/1740910_1539753269609890_1946612787_n.jpg
p1504
aVhttp://scontent-b.cdninstagram.com/hphotos-xpf1/t51.2885-15/s150x150/e15/10554266_1553893128191525_593139903_n.jpg
p1505
aVhttp://scontent-a.cdninstagram.com/hphotos-xfa1/t51.2885-15/s150x150/e15/10919321_314437128766930_1227122658_n.jpg
p1506
aVhttp://scontent-a.cdninstagram.com/hphotos-xaf1/t51.2885-15/s150x150/e15/10838622_680357588742158_789799331_n.jpg
p1507
aVhttp://scontent-a.cdninstagram.com/hphotos-xaf1/t51.2885-15/s150x150/e15/10948929_574873092648056_313065123_n.jpg
p1508
aVhttp://scontent-b.cdninstagram.com/hphotos-xaf1/t51.2885-15/s150x150/e15/10956570_785759388155786_1561861545_n.jpg
p1509
aVhttp://scontent-a.cdninstagram.com/hphotos-xaf1/t51.2885-15/s150x150/e15/10946443_598360360296260_1853363520_n.jpg
p1510
aVhttp://scontent-a.cdninstagram.com/hphotos-xpf1/t51.2885-15/s150x150/e15/10808708_910871825630080_1487352841_n.jpg
p1511
aVhttp://scontent-b.cdninstagram.com/hphotos-xaf1/t51.2885-15/s150x150/e15/10932382_1406090339691864_1823317468_n.jpg
p1512
aVhttp://scontent-b.cdninstagram.com/hphotos-xpa1/t51.2885-15/s150x150/e15/1515692_637793326366133_105502667_n.jpg
p1513
aVhttp://scontent-a.cdninstagram.com/hphotos-xaf1/t51.2885-15/s150x150/e15/10958181_850566938340911_590211340_n.jpg
p1514
aVhttp://scontent-a.cdninstagram.com/hphotos-xaf1/t51.2885-15/s150x150/e15/10948473_782630441811067_1627546634_n.jpg
p1515
aVhttp://scontent-b.cdninstagram.com/hphotos-xaf1/t51.2885-15/s150x150/e15/10954711_645695545557942_361891589_n.jpg
p1516
aVhttp://scontent-a.cdninstagram.com/hphotos-xaf1/t51.2885-15/s150x150/e15/10903206_771538596261754_282189735_n.jpg
p1517
aVhttp://scontent-a.cdninstagram.com/hphotos-xpa1/t51.2885-15/s150x150/e15/10542764_801974496598424_1880515946_n.jpg
p1518
aVhttp://scontent-a.cdninstagram.com/hphotos-xpa1/t51.2885-15/s150x150/e15/1741015_783596731726914_401157937_n.jpg
p1519
aVhttp://scontent-b.cdninstagram.com/hphotos-xaf1/t51.2885-15/s150x150/e15/10957224_820378821355241_1090215119_n.jpg
p1520
asg119
F-74.007745693
sg120
(lp1521
I1
aI2
aI2
aI0
aI2
aI4
aI4
aI2
aI2
aI1
aI0
aI4
aI1
aI2
aI1
aI2
aI1
aI0
aI1
aI1
aI1
aI1
aI2
aI1
aI2
aI0
aI0
aI7
aI2
aI2
aI2
aI3
aI3
aI2
aI1
aI2
aI3
aI4
aI1
aI0
aI0
aI1
aI1
aI0
aI1
aI1
aI2
aI4
aI0
aI0
aI4
aI0
aI1
aI3
aI4
aI1
aI3
aI2
aI2
aI1
aI4
aI2
aI4
aI1
aI1
aI1
aI1
aI4
aI1
aI4
aI2
aI1
aI2
aI2
aI4
aI2
aI4
aI5
aI8
aI1
aI6
aI3
aI3
aI6
asg122
F40.740759914
sg123
S'The Standard High Line'
p1522
ss.