(dp0
cnumpy.core.multiarray
scalar
p1
(cnumpy
dtype
p2
(S'i8'
p3
I0
I1
tp4
Rp5
(I3
S'<'
p6
NNNI-1
I-1
I0
tp7
bS'kE\x1a\x00\x00\x00\x00\x00'
p8
tp9
Rp10
(dp11
S't_h'
p12
(lp13
S'2015-01-25 09:00:00'
p14
aS'2015-01-25 10:00:00'
p15
aS'2015-01-25 11:00:00'
p16
aS'2015-01-25 12:00:00'
p17
aS'2015-01-25 13:00:00'
p18
aS'2015-01-25 14:00:00'
p19
aS'2015-01-25 15:00:00'
p20
aS'2015-01-25 16:00:00'
p21
aS'2015-01-25 17:00:00'
p22
aS'2015-01-25 18:00:00'
p23
aS'2015-01-25 19:00:00'
p24
aS'2015-01-25 20:00:00'
p25
aS'2015-01-25 21:00:00'
p26
aS'2015-01-25 22:00:00'
p27
aS'2015-01-25 23:00:00'
p28
aS'2015-01-26 09:00:00'
p29
aS'2015-01-26 10:00:00'
p30
aS'2015-01-26 11:00:00'
p31
aS'2015-01-26 12:00:00'
p32
aS'2015-01-26 13:00:00'
p33
aS'2015-01-26 14:00:00'
p34
aS'2015-01-26 15:00:00'
p35
aS'2015-01-26 16:00:00'
p36
aS'2015-01-26 17:00:00'
p37
aS'2015-01-26 18:00:00'
p38
aS'2015-01-26 19:00:00'
p39
aS'2015-01-26 20:00:00'
p40
aS'2015-01-26 21:00:00'
p41
aS'2015-01-26 22:00:00'
p42
aS'2015-01-26 23:00:00'
p43
aS'2015-01-27 09:00:00'
p44
aS'2015-01-27 10:00:00'
p45
aS'2015-01-27 11:00:00'
p46
aS'2015-01-27 12:00:00'
p47
aS'2015-01-27 13:00:00'
p48
aS'2015-01-27 14:00:00'
p49
aS'2015-01-27 15:00:00'
p50
aS'2015-01-27 16:00:00'
p51
aS'2015-01-27 17:00:00'
p52
aS'2015-01-27 18:00:00'
p53
aS'2015-01-27 19:00:00'
p54
aS'2015-01-27 20:00:00'
p55
aS'2015-01-27 21:00:00'
p56
aS'2015-01-27 22:00:00'
p57
aS'2015-01-27 23:00:00'
p58
aS'2015-01-29 09:00:00'
p59
aS'2015-01-29 10:00:00'
p60
aS'2015-01-29 11:00:00'
p61
aS'2015-01-29 12:00:00'
p62
aS'2015-01-29 13:00:00'
p63
aS'2015-01-29 14:00:00'
p64
aS'2015-01-29 15:00:00'
p65
aS'2015-01-29 17:00:00'
p66
aS'2015-01-29 18:00:00'
p67
aS'2015-01-29 19:00:00'
p68
aS'2015-01-28 09:00:00'
p69
aS'2015-01-28 10:00:00'
p70
aS'2015-01-28 11:00:00'
p71
aS'2015-01-28 12:00:00'
p72
aS'2015-01-28 13:00:00'
p73
aS'2015-01-28 14:00:00'
p74
aS'2015-01-28 15:00:00'
p75
aS'2015-01-28 16:00:00'
p76
aS'2015-01-28 17:00:00'
p77
aS'2015-01-28 18:00:00'
p78
aS'2015-01-28 19:00:00'
p79
aS'2015-01-28 20:00:00'
p80
aS'2015-01-28 21:00:00'
p81
aS'2015-01-28 22:00:00'
p82
aS'2015-01-28 23:00:00'
p83
aS'2015-01-29 20:00:00'
p84
aS'2015-01-29 21:00:00'
p85
aS'2015-01-29 22:00:00'
p86
aS'2015-01-29 23:00:00'
p87
aS'2015-01-30 09:00:00'
p88
aS'2015-01-30 10:00:00'
p89
aS'2015-01-30 11:00:00'
p90
aS'2015-01-30 13:00:00'
p91
aS'2015-01-30 14:00:00'
p92
aS'2015-01-30 15:00:00'
p93
aS'2015-01-30 16:00:00'
p94
aS'2015-01-30 17:00:00'
p95
aS'2015-01-30 18:00:00'
p96
aS'2015-01-30 19:00:00'
p97
aS'2015-01-30 20:00:00'
p98
aS'2015-01-30 21:00:00'
p99
aS'2015-01-30 22:00:00'
p100
aS'2015-01-30 23:00:00'
p101
asS'event_type'
p102
S'Anomaly'
p103
sS'url'
p104
(lp105
Vhttp://scontent-a.cdninstagram.com/hphotos-xfa1/t51.2885-15/s150x150/e15/10932578_911892938861240_7478517_n.jpg
p106
aVhttp://scontent-a.cdninstagram.com/hphotos-xfa1/t51.2885-15/s150x150/e15/10946369_816654071744708_135100993_n.jpg
p107
aVhttp://scontent-a.cdninstagram.com/hphotos-xfa1/t51.2885-15/s150x150/e15/10948943_1557792357813277_627543589_n.jpg
p108
aVhttp://scontent-a.cdninstagram.com/hphotos-xaf1/t51.2885-15/s150x150/e15/10963974_1584901155057476_150892279_n.jpg
p109
aVhttp://scontent-a.cdninstagram.com/hphotos-xaf1/t51.2885-15/s150x150/e15/10948858_1429266484031154_1879229240_n.jpg
p110
aVhttp://scontent-a.cdninstagram.com/hphotos-xaf1/t51.2885-15/s150x150/e15/10963891_338343503037068_530530433_n.jpg
p111
aVhttp://scontent-b.cdninstagram.com/hphotos-xaf1/t51.2885-15/s150x150/e15/10963755_717865354978907_1575405786_n.jpg
p112
aVhttp://scontent-b.cdninstagram.com/hphotos-xaf1/t51.2885-15/s150x150/e15/10932457_396644797178359_1652316649_n.jpg
p113
aVhttp://scontent-a.cdninstagram.com/hphotos-xfa1/t51.2885-15/s150x150/e15/10958405_785583171534843_794703749_n.jpg
p114
aVhttp://scontent-b.cdninstagram.com/hphotos-xaf1/t51.2885-15/s150x150/e15/10919259_784545024953991_943945795_n.jpg
p115
aVhttp://scontent-b.cdninstagram.com/hphotos-xfa1/t51.2885-15/s150x150/e15/10932563_1626879524207600_496013860_n.jpg
p116
aVhttp://scontent-a.cdninstagram.com/hphotos-xaf1/t51.2885-15/s150x150/e15/10963956_1541616856091219_701539201_n.jpg
p117
aVhttp://scontent-a.cdninstagram.com/hphotos-xaf1/t51.2885-15/s150x150/e15/10946418_1584614631756819_490385909_n.jpg
p118
aVhttp://scontent-a.cdninstagram.com/hphotos-xpa1/t51.2885-15/s150x150/e15/10666126_712761988844610_236490367_n.jpg
p119
aVhttp://scontent-a.cdninstagram.com/hphotos-xap1/t51.2885-15/s150x150/e15/924150_717373165028728_2093448640_n.jpg
p120
aVhttp://scontent-a.cdninstagram.com/hphotos-xaf1/t51.2885-15/s150x150/e15/10958482_1590359437863694_574175469_n.jpg
p121
aVhttp://scontent-a.cdninstagram.com/hphotos-xfa1/t51.2885-15/s150x150/e15/10950626_1774169829473872_948679017_n.jpg
p122
aVhttp://scontent-b.cdninstagram.com/hphotos-xaf1/t51.2885-15/s150x150/e15/10963869_320333471496881_1641699750_n.jpg
p123
asS'lon'
p124
F-73.987360392
sS'x_h'
p125
(lp126
I2
aI5
aI5
aI8
aI4
aI6
aI10
aI4
aI7
aI1
aI3
aI9
aI10
aI5
aI1
aI0
aI3
aI6
aI3
aI2
aI2
aI2
aI13
aI0
aI2
aI3
aI3
aI1
aI0
aI0
aI0
aI0
aI0
aI2
aI1
aI3
aI3
aI3
aI2
aI1
aI2
aI0
aI1
aI3
aI1
aI2
aI1
aI1
aI1
aI3
aI1
aI1
aI1
aI1
aI1
aI1
aI0
aI0
aI2
aI0
aI0
aI0
aI2
aI2
aI2
aI1
aI6
aI1
aI0
aI4
aI3
aI4
aI4
aI8
aI2
aI1
aI2
aI1
aI2
aI3
aI8
aI3
aI3
aI2
aI3
aI1
aI6
aI5
asS'lat'
p127
F40.722272516
sS'name'
p128
S"Katz's Delicatessen"
p129
ssg1
(g5
S'\x8c\xb8\x01\x00\x00\x00\x00\x00'
p130
tp131
Rp132
(dp133
g12
(lp134
S'2015-01-25 09:00:00'
p135
aS'2015-01-25 10:00:00'
p136
aS'2015-01-25 11:00:00'
p137
aS'2015-01-25 12:00:00'
p138
aS'2015-01-25 13:00:00'
p139
aS'2015-01-25 14:00:00'
p140
aS'2015-01-25 15:00:00'
p141
aS'2015-01-25 16:00:00'
p142
aS'2015-01-25 17:00:00'
p143
aS'2015-01-25 18:00:00'
p144
aS'2015-01-25 19:00:00'
p145
aS'2015-01-25 20:00:00'
p146
aS'2015-01-25 21:00:00'
p147
aS'2015-01-25 22:00:00'
p148
aS'2015-01-25 23:00:00'
p149
aS'2015-01-26 09:00:00'
p150
aS'2015-01-26 10:00:00'
p151
aS'2015-01-26 11:00:00'
p152
aS'2015-01-26 12:00:00'
p153
aS'2015-01-26 13:00:00'
p154
aS'2015-01-26 14:00:00'
p155
aS'2015-01-26 15:00:00'
p156
aS'2015-01-26 16:00:00'
p157
aS'2015-01-26 17:00:00'
p158
aS'2015-01-26 18:00:00'
p159
aS'2015-01-26 19:00:00'
p160
aS'2015-01-26 20:00:00'
p161
aS'2015-01-26 21:00:00'
p162
aS'2015-01-26 22:00:00'
p163
aS'2015-01-26 23:00:00'
p164
aS'2015-01-27 09:00:00'
p165
aS'2015-01-27 10:00:00'
p166
aS'2015-01-27 11:00:00'
p167
aS'2015-01-27 12:00:00'
p168
aS'2015-01-27 13:00:00'
p169
aS'2015-01-27 14:00:00'
p170
aS'2015-01-27 15:00:00'
p171
aS'2015-01-27 16:00:00'
p172
aS'2015-01-27 17:00:00'
p173
aS'2015-01-27 18:00:00'
p174
aS'2015-01-27 19:00:00'
p175
aS'2015-01-27 20:00:00'
p176
aS'2015-01-27 21:00:00'
p177
aS'2015-01-27 22:00:00'
p178
aS'2015-01-27 23:00:00'
p179
aS'2015-01-29 10:00:00'
p180
aS'2015-01-29 11:00:00'
p181
aS'2015-01-29 12:00:00'
p182
aS'2015-01-29 14:00:00'
p183
aS'2015-01-29 15:00:00'
p184
aS'2015-01-29 16:00:00'
p185
aS'2015-01-29 18:00:00'
p186
aS'2015-01-29 19:00:00'
p187
aS'2015-01-28 09:00:00'
p188
aS'2015-01-28 10:00:00'
p189
aS'2015-01-28 11:00:00'
p190
aS'2015-01-28 12:00:00'
p191
aS'2015-01-28 13:00:00'
p192
aS'2015-01-28 14:00:00'
p193
aS'2015-01-28 15:00:00'
p194
aS'2015-01-28 16:00:00'
p195
aS'2015-01-28 17:00:00'
p196
aS'2015-01-28 18:00:00'
p197
aS'2015-01-28 19:00:00'
p198
aS'2015-01-28 20:00:00'
p199
aS'2015-01-28 21:00:00'
p200
aS'2015-01-28 22:00:00'
p201
aS'2015-01-28 23:00:00'
p202
aS'2015-01-29 20:00:00'
p203
aS'2015-01-29 21:00:00'
p204
aS'2015-01-29 22:00:00'
p205
aS'2015-01-29 23:00:00'
p206
aS'2015-01-30 09:00:00'
p207
aS'2015-01-30 10:00:00'
p208
aS'2015-01-30 11:00:00'
p209
aS'2015-01-30 12:00:00'
p210
aS'2015-01-30 13:00:00'
p211
aS'2015-01-30 15:00:00'
p212
aS'2015-01-30 16:00:00'
p213
aS'2015-01-30 17:00:00'
p214
aS'2015-01-30 18:00:00'
p215
aS'2015-01-30 19:00:00'
p216
aS'2015-01-30 20:00:00'
p217
aS'2015-01-30 21:00:00'
p218
aS'2015-01-30 22:00:00'
p219
aS'2015-01-30 23:00:00'
p220
asg102
g103
sg104
(lp221
Vhttp://scontent-a.cdninstagram.com/hphotos-xfa1/t51.2885-15/s150x150/e15/10954748_346604652193769_625434783_n.jpg
p222
aVhttp://scontent-b.cdninstagram.com/hphotos-xfa1/t51.2885-15/s150x150/e15/10956848_776087992428811_1243835992_n.jpg
p223
aVhttp://scontent-b.cdninstagram.com/hphotos-xaf1/t51.2885-15/s150x150/e15/10963854_921688137864398_2144526177_n.jpg
p224
aVhttp://scontent-a.cdninstagram.com/hphotos-xaf1/t51.2885-15/s150x150/e15/10958265_759885527425007_1174242078_n.jpg
p225
aVhttp://scontent-b.cdninstagram.com/hphotos-xaf1/t51.2885-15/s150x150/e15/10963839_348528998669469_127061707_n.jpg
p226
aVhttp://scontent-b.cdninstagram.com/hphotos-xfa1/t51.2885-15/s150x150/e15/10919153_1558537397749937_162956276_n.jpg
p227
aVhttp://scontent-a.cdninstagram.com/hphotos-xaf1/t51.2885-15/s150x150/e15/10956537_1541657102751075_104526475_n.jpg
p228
aVhttp://scontent-b.cdninstagram.com/hphotos-xfa1/t51.2885-15/s150x150/e15/10895300_600240043442596_146305076_n.jpg
p229
aVhttp://scontent-a.cdninstagram.com/hphotos-xaf1/t51.2885-15/s150x150/e15/10948759_718367364943360_1240482665_n.jpg
p230
aVhttp://scontent-a.cdninstagram.com/hphotos-xaf1/t51.2885-15/s150x150/e15/10945240_781264315261808_1242011853_n.jpg
p231
aVhttp://scontent-a.cdninstagram.com/hphotos-xaf1/t51.2885-15/s150x150/e15/10957117_1416527128644545_437840402_n.jpg
p232
aVhttp://scontent-a.cdninstagram.com/hphotos-xaf1/t51.2885-15/s150x150/e15/10914468_757805364302454_991253750_n.jpg
p233
aVhttp://scontent-b.cdninstagram.com/hphotos-xpa1/t51.2885-15/s150x150/e15/10727558_830562586987591_1522536355_n.jpg
p234
aVhttp://scontent-b.cdninstagram.com/hphotos-xfa1/t51.2885-15/s150x150/e15/10932248_1543275415956490_2025571741_n.jpg
p235
aVhttp://scontent-b.cdninstagram.com/hphotos-xfa1/t51.2885-15/s150x150/e15/10963871_1535952643331789_443730960_n.jpg
p236
aVhttp://scontent-b.cdninstagram.com/hphotos-xaf1/t51.2885-15/s150x150/e15/10932114_1544988099112933_500471190_n.jpg
p237
aVhttp://scontent-b.cdninstagram.com/hphotos-xfa1/t51.2885-15/s150x150/e15/10957385_878111802240321_986135260_n.jpg
p238
aVhttp://scontent-b.cdninstagram.com/hphotos-xfa1/t51.2885-15/s150x150/e15/10948676_1528981727362127_1697873171_n.jpg
p239
asg124
F-74.002552516
sg125
(lp240
I1
aI2
aI4
aI1
aI1
aI3
aI0
aI0
aI2
aI3
aI1
aI1
aI0
aI0
aI0
aI0
aI0
aI0
aI0
aI0
aI1
aI1
aI0
aI0
aI0
aI0
aI0
aI0
aI0
aI0
aI0
aI0
aI0
aI0
aI1
aI0
aI0
aI1
aI0
aI1
aI0
aI0
aI0
aI1
aI1
aI1
aI1
aI1
aI2
aI2
aI1
aI1
aI1
aI0
aI0
aI1
aI0
aI0
aI1
aI0
aI1
aI1
aI0
aI1
aI0
aI0
aI0
aI0
aI2
aI2
aI1
aI5
aI2
aI1
aI3
aI4
aI2
aI1
aI4
aI3
aI3
aI3
aI2
aI3
aI3
aI2
asg127
F40.750087104
sg128
S'Marquee New York'
p241
ssg1
(g5
S'0\xc6\x1f\x00\x00\x00\x00\x00'
p242
tp243
Rp244
(dp245
g12
(lp246
S'2015-01-25 09:00:00'
p247
aS'2015-01-25 10:00:00'
p248
aS'2015-01-25 11:00:00'
p249
aS'2015-01-25 12:00:00'
p250
aS'2015-01-25 13:00:00'
p251
aS'2015-01-25 14:00:00'
p252
aS'2015-01-25 15:00:00'
p253
aS'2015-01-25 16:00:00'
p254
aS'2015-01-25 17:00:00'
p255
aS'2015-01-25 18:00:00'
p256
aS'2015-01-25 19:00:00'
p257
aS'2015-01-25 20:00:00'
p258
aS'2015-01-25 21:00:00'
p259
aS'2015-01-25 22:00:00'
p260
aS'2015-01-25 23:00:00'
p261
aS'2015-01-26 09:00:00'
p262
aS'2015-01-26 10:00:00'
p263
aS'2015-01-26 11:00:00'
p264
aS'2015-01-26 12:00:00'
p265
aS'2015-01-26 13:00:00'
p266
aS'2015-01-26 14:00:00'
p267
aS'2015-01-26 15:00:00'
p268
aS'2015-01-26 16:00:00'
p269
aS'2015-01-26 17:00:00'
p270
aS'2015-01-26 18:00:00'
p271
aS'2015-01-26 19:00:00'
p272
aS'2015-01-26 20:00:00'
p273
aS'2015-01-26 21:00:00'
p274
aS'2015-01-26 22:00:00'
p275
aS'2015-01-26 23:00:00'
p276
aS'2015-01-27 09:00:00'
p277
aS'2015-01-27 10:00:00'
p278
aS'2015-01-27 11:00:00'
p279
aS'2015-01-27 12:00:00'
p280
aS'2015-01-27 13:00:00'
p281
aS'2015-01-27 14:00:00'
p282
aS'2015-01-27 15:00:00'
p283
aS'2015-01-27 16:00:00'
p284
aS'2015-01-27 17:00:00'
p285
aS'2015-01-27 18:00:00'
p286
aS'2015-01-27 19:00:00'
p287
aS'2015-01-27 20:00:00'
p288
aS'2015-01-27 21:00:00'
p289
aS'2015-01-27 22:00:00'
p290
aS'2015-01-27 23:00:00'
p291
aS'2015-01-29 09:00:00'
p292
aS'2015-01-29 10:00:00'
p293
aS'2015-01-29 11:00:00'
p294
aS'2015-01-29 12:00:00'
p295
aS'2015-01-29 13:00:00'
p296
aS'2015-01-29 14:00:00'
p297
aS'2015-01-29 15:00:00'
p298
aS'2015-01-29 16:00:00'
p299
aS'2015-01-29 17:00:00'
p300
aS'2015-01-29 18:00:00'
p301
aS'2015-01-29 19:00:00'
p302
aS'2015-01-28 09:00:00'
p303
aS'2015-01-28 10:00:00'
p304
aS'2015-01-28 11:00:00'
p305
aS'2015-01-28 12:00:00'
p306
aS'2015-01-28 13:00:00'
p307
aS'2015-01-28 14:00:00'
p308
aS'2015-01-28 15:00:00'
p309
aS'2015-01-28 16:00:00'
p310
aS'2015-01-28 17:00:00'
p311
aS'2015-01-28 18:00:00'
p312
aS'2015-01-28 19:00:00'
p313
aS'2015-01-28 20:00:00'
p314
aS'2015-01-28 21:00:00'
p315
aS'2015-01-28 22:00:00'
p316
aS'2015-01-28 23:00:00'
p317
aS'2015-01-29 20:00:00'
p318
aS'2015-01-29 21:00:00'
p319
aS'2015-01-29 22:00:00'
p320
aS'2015-01-29 23:00:00'
p321
aS'2015-01-30 09:00:00'
p322
aS'2015-01-30 10:00:00'
p323
aS'2015-01-30 11:00:00'
p324
aS'2015-01-30 12:00:00'
p325
aS'2015-01-30 13:00:00'
p326
aS'2015-01-30 14:00:00'
p327
aS'2015-01-30 15:00:00'
p328
aS'2015-01-30 16:00:00'
p329
aS'2015-01-30 17:00:00'
p330
aS'2015-01-30 18:00:00'
p331
aS'2015-01-30 19:00:00'
p332
aS'2015-01-30 20:00:00'
p333
aS'2015-01-30 21:00:00'
p334
aS'2015-01-30 22:00:00'
p335
aS'2015-01-30 23:00:00'
p336
asg102
g103
sg104
(lp337
Vhttp://scontent-b.cdninstagram.com/hphotos-xfa1/t51.2885-15/s150x150/e15/10958129_702832546500376_295261835_n.jpg
p338
aVhttp://scontent-a.cdninstagram.com/hphotos-xfa1/t51.2885-15/s150x150/e15/10724636_1569677333273463_1851738389_n.jpg
p339
aVhttp://scontent-b.cdninstagram.com/hphotos-xpf1/t51.2885-15/s150x150/e15/10549769_764634586951544_2105000854_n.jpg
p340
aVhttp://scontent-a.cdninstagram.com/hphotos-xfa1/t51.2885-15/s150x150/e15/10958252_332429736961852_530055915_n.jpg
p341
aVhttp://scontent-a.cdninstagram.com/hphotos-xaf1/t51.2885-15/s150x150/e15/10919749_1533522413575789_359781168_n.jpg
p342
aVhttp://scontent-b.cdninstagram.com/hphotos-xfa1/t51.2885-15/s150x150/e15/10950389_315511731971537_1633670589_n.jpg
p343
aVhttp://scontent-b.cdninstagram.com/hphotos-xaf1/t51.2885-15/s150x150/e15/10957281_1571360479778089_386336089_n.jpg
p344
aVhttp://scontent-b.cdninstagram.com/hphotos-xpf1/t51.2885-15/s150x150/e15/10525528_516411798498234_1130548426_n.jpg
p345
aVhttp://scontent-a.cdninstagram.com/hphotos-xaf1/t51.2885-15/s150x150/e15/10946380_1023781837636696_270278229_n.jpg
p346
aVhttp://scontent-a.cdninstagram.com/hphotos-xfa1/t51.2885-15/s150x150/e15/10945232_1543341239269220_1107900138_n.jpg
p347
aVhttp://scontent-b.cdninstagram.com/hphotos-xaf1/t51.2885-15/s150x150/e15/10932531_759941194102072_602221026_n.jpg
p348
aVhttp://scontent-b.cdninstagram.com/hphotos-xaf1/t51.2885-15/s150x150/e15/10963762_657917117668104_1472597794_n.jpg
p349
aVhttp://scontent-a.cdninstagram.com/hphotos-xap1/t51.2885-15/s150x150/e15/929212_825302470876087_1462438411_n.jpg
p350
aVhttp://scontent-a.cdninstagram.com/hphotos-xaf1/t51.2885-15/s150x150/e15/10948984_1530168823931799_1275375380_n.jpg
p351
aVhttp://scontent-a.cdninstagram.com/hphotos-xaf1/t51.2885-15/s150x150/e15/10949028_388848317942369_1896073925_n.jpg
p352
aVhttp://scontent-b.cdninstagram.com/hphotos-xfa1/t51.2885-15/s150x150/e15/10952546_1577928129118984_1809141180_n.jpg
p353
aVhttp://scontent-a.cdninstagram.com/hphotos-xpa1/t51.2885-15/s150x150/e15/10004252_1544677299106531_1190305063_n.jpg
p354
aVhttp://scontent-b.cdninstagram.com/hphotos-xaf1/t51.2885-15/s150x150/e15/10945266_341101002745794_1182327484_n.jpg
p355
asg124
F-73.992785274
sg125
(lp356
I2
aI10
aI15
aI13
aI63
aI102
aI46
aI141
aI74
aI31
aI26
aI16
aI8
aI13
aI11
aI4
aI4
aI7
aI9
aI9
aI13
aI17
aI10
aI11
aI8
aI8
aI3
aI2
aI6
aI2
aI8
aI5
aI1
aI2
aI1
aI6
aI6
aI5
aI6
aI6
aI6
aI3
aI1
aI1
aI2
aI2
aI11
aI10
aI13
aI11
aI9
aI8
aI5
aI5
aI7
aI33
aI2
aI4
aI1
aI3
aI2
aI2
aI6
aI2
aI5
aI13
aI54
aI111
aI103
aI0
aI27
aI79
aI54
aI26
aI24
aI4
aI4
aI6
aI6
aI5
aI5
aI5
aI7
aI6
aI9
aI5
aI22
aI76
aI81
aI82
asg127
F40.750526876
sg128
S'Madison Square Garden'
p357
ssg1
(g5
S'I\xe1\xb0\x0c\x00\x00\x00\x00'
p358
tp359
Rp360
(dp361
g12
(lp362
S'2015-01-25 09:00:00'
p363
aS'2015-01-25 10:00:00'
p364
aS'2015-01-25 11:00:00'
p365
aS'2015-01-25 12:00:00'
p366
aS'2015-01-25 13:00:00'
p367
aS'2015-01-25 14:00:00'
p368
aS'2015-01-25 15:00:00'
p369
aS'2015-01-25 16:00:00'
p370
aS'2015-01-25 17:00:00'
p371
aS'2015-01-25 18:00:00'
p372
aS'2015-01-25 19:00:00'
p373
aS'2015-01-25 20:00:00'
p374
aS'2015-01-25 21:00:00'
p375
aS'2015-01-25 22:00:00'
p376
aS'2015-01-25 23:00:00'
p377
aS'2015-01-26 09:00:00'
p378
aS'2015-01-26 10:00:00'
p379
aS'2015-01-26 11:00:00'
p380
aS'2015-01-26 12:00:00'
p381
aS'2015-01-26 13:00:00'
p382
aS'2015-01-26 14:00:00'
p383
aS'2015-01-26 15:00:00'
p384
aS'2015-01-26 16:00:00'
p385
aS'2015-01-26 17:00:00'
p386
aS'2015-01-26 18:00:00'
p387
aS'2015-01-26 19:00:00'
p388
aS'2015-01-26 20:00:00'
p389
aS'2015-01-26 21:00:00'
p390
aS'2015-01-26 22:00:00'
p391
aS'2015-01-26 23:00:00'
p392
aS'2015-01-27 09:00:00'
p393
aS'2015-01-27 10:00:00'
p394
aS'2015-01-27 11:00:00'
p395
aS'2015-01-27 12:00:00'
p396
aS'2015-01-27 13:00:00'
p397
aS'2015-01-27 14:00:00'
p398
aS'2015-01-27 15:00:00'
p399
aS'2015-01-27 16:00:00'
p400
aS'2015-01-27 17:00:00'
p401
aS'2015-01-27 18:00:00'
p402
aS'2015-01-27 19:00:00'
p403
aS'2015-01-27 20:00:00'
p404
aS'2015-01-27 21:00:00'
p405
aS'2015-01-27 22:00:00'
p406
aS'2015-01-27 23:00:00'
p407
aS'2015-01-29 09:00:00'
p408
aS'2015-01-29 10:00:00'
p409
aS'2015-01-29 11:00:00'
p410
aS'2015-01-29 12:00:00'
p411
aS'2015-01-29 13:00:00'
p412
aS'2015-01-29 14:00:00'
p413
aS'2015-01-29 15:00:00'
p414
aS'2015-01-29 16:00:00'
p415
aS'2015-01-29 17:00:00'
p416
aS'2015-01-29 18:00:00'
p417
aS'2015-01-29 19:00:00'
p418
aS'2015-01-28 09:00:00'
p419
aS'2015-01-28 10:00:00'
p420
aS'2015-01-28 11:00:00'
p421
aS'2015-01-28 12:00:00'
p422
aS'2015-01-28 13:00:00'
p423
aS'2015-01-28 14:00:00'
p424
aS'2015-01-28 15:00:00'
p425
aS'2015-01-28 16:00:00'
p426
aS'2015-01-28 17:00:00'
p427
aS'2015-01-28 18:00:00'
p428
aS'2015-01-28 19:00:00'
p429
aS'2015-01-28 20:00:00'
p430
aS'2015-01-28 21:00:00'
p431
aS'2015-01-28 22:00:00'
p432
aS'2015-01-28 23:00:00'
p433
aS'2015-01-29 20:00:00'
p434
aS'2015-01-29 21:00:00'
p435
aS'2015-01-29 22:00:00'
p436
aS'2015-01-29 23:00:00'
p437
aS'2015-01-30 09:00:00'
p438
aS'2015-01-30 10:00:00'
p439
aS'2015-01-30 11:00:00'
p440
aS'2015-01-30 12:00:00'
p441
aS'2015-01-30 13:00:00'
p442
aS'2015-01-30 14:00:00'
p443
aS'2015-01-30 15:00:00'
p444
aS'2015-01-30 16:00:00'
p445
aS'2015-01-30 17:00:00'
p446
aS'2015-01-30 18:00:00'
p447
aS'2015-01-30 19:00:00'
p448
aS'2015-01-30 20:00:00'
p449
aS'2015-01-30 21:00:00'
p450
aS'2015-01-30 22:00:00'
p451
aS'2015-01-30 23:00:00'
p452
asg102
g103
sg104
(lp453
Vhttp://scontent-b.cdninstagram.com/hphotos-xaf1/t51.2885-15/s150x150/e15/10919370_1536114113308658_117250305_n.jpg
p454
aVhttp://scontent-b.cdninstagram.com/hphotos-xfa1/t51.2885-15/s150x150/e15/10953638_816245945079935_1224531474_n.jpg
p455
aVhttp://scontent-a.cdninstagram.com/hphotos-xpa1/t51.2885-15/s150x150/e15/924031_424400624395618_1307582709_n.jpg
p456
aVhttp://scontent-b.cdninstagram.com/hphotos-xap1/t51.2885-15/s150x150/e15/925590_1395671697403751_672140900_n.jpg
p457
aVhttp://scontent-b.cdninstagram.com/hphotos-xfa1/t51.2885-15/s150x150/e15/10953032_393980204097415_512137275_n.jpg
p458
aVhttp://scontent-b.cdninstagram.com/hphotos-xaf1/t51.2885-15/s150x150/e15/10895463_1537916269795103_1305248390_n.jpg
p459
aVhttp://scontent-b.cdninstagram.com/hphotos-xaf1/t51.2885-15/s150x150/e15/10953912_332435066959599_759080445_n.jpg
p460
aVhttp://scontent-a.cdninstagram.com/hphotos-xfa1/t51.2885-15/s150x150/e15/914512_1406985596263088_589203444_n.jpg
p461
aVhttp://scontent-b.cdninstagram.com/hphotos-xap1/t51.2885-15/s150x150/e15/927357_920413551305019_2063883892_n.jpg
p462
aVhttp://scontent-b.cdninstagram.com/hphotos-xaf1/t51.2885-15/s150x150/e15/10932373_559882544146204_145632911_n.jpg
p463
asg124
F-73.977886
sg125
(lp464
I9
aI10
aI7
aI4
aI9
aI15
aI7
aI21
aI6
aI13
aI12
aI5
aI11
aI17
aI11
aI9
aI4
aI9
aI14
aI21
aI30
aI24
aI30
aI14
aI18
aI5
aI4
aI12
aI9
aI7
aI6
aI11
aI7
aI7
aI3
aI6
aI13
aI6
aI5
aI8
aI8
aI7
aI10
aI3
aI4
aI7
aI6
aI6
aI4
aI8
aI6
aI7
aI9
aI8
aI10
aI17
aI3
aI4
aI2
aI8
aI5
aI6
aI5
aI6
aI7
aI9
aI14
aI7
aI5
aI0
aI6
aI14
aI8
aI6
aI7
aI4
aI6
aI2
aI4
aI7
aI11
aI18
aI12
aI8
aI16
aI12
aI14
aI4
aI7
aI8
asg127
F40.752377
sg128
S'Grand Central Terminal'
p465
ssg1
(g5
S'U\xc6\x05\x00\x00\x00\x00\x00'
p466
tp467
Rp468
(dp469
g12
(lp470
S'2015-01-25 09:00:00'
p471
aS'2015-01-25 10:00:00'
p472
aS'2015-01-25 11:00:00'
p473
aS'2015-01-25 12:00:00'
p474
aS'2015-01-25 13:00:00'
p475
aS'2015-01-25 14:00:00'
p476
aS'2015-01-25 15:00:00'
p477
aS'2015-01-25 16:00:00'
p478
aS'2015-01-25 17:00:00'
p479
aS'2015-01-25 18:00:00'
p480
aS'2015-01-25 19:00:00'
p481
aS'2015-01-25 20:00:00'
p482
aS'2015-01-25 21:00:00'
p483
aS'2015-01-25 22:00:00'
p484
aS'2015-01-25 23:00:00'
p485
aS'2015-01-26 09:00:00'
p486
aS'2015-01-26 10:00:00'
p487
aS'2015-01-26 11:00:00'
p488
aS'2015-01-26 12:00:00'
p489
aS'2015-01-26 13:00:00'
p490
aS'2015-01-26 14:00:00'
p491
aS'2015-01-26 15:00:00'
p492
aS'2015-01-26 16:00:00'
p493
aS'2015-01-26 17:00:00'
p494
aS'2015-01-26 18:00:00'
p495
aS'2015-01-26 19:00:00'
p496
aS'2015-01-26 20:00:00'
p497
aS'2015-01-26 21:00:00'
p498
aS'2015-01-26 22:00:00'
p499
aS'2015-01-26 23:00:00'
p500
aS'2015-01-27 09:00:00'
p501
aS'2015-01-27 10:00:00'
p502
aS'2015-01-27 11:00:00'
p503
aS'2015-01-27 12:00:00'
p504
aS'2015-01-27 13:00:00'
p505
aS'2015-01-27 14:00:00'
p506
aS'2015-01-27 15:00:00'
p507
aS'2015-01-27 16:00:00'
p508
aS'2015-01-27 17:00:00'
p509
aS'2015-01-27 18:00:00'
p510
aS'2015-01-27 19:00:00'
p511
aS'2015-01-27 20:00:00'
p512
aS'2015-01-27 21:00:00'
p513
aS'2015-01-27 22:00:00'
p514
aS'2015-01-27 23:00:00'
p515
aS'2015-01-29 09:00:00'
p516
aS'2015-01-29 10:00:00'
p517
aS'2015-01-29 11:00:00'
p518
aS'2015-01-29 12:00:00'
p519
aS'2015-01-29 13:00:00'
p520
aS'2015-01-29 14:00:00'
p521
aS'2015-01-29 15:00:00'
p522
aS'2015-01-29 16:00:00'
p523
aS'2015-01-29 17:00:00'
p524
aS'2015-01-29 18:00:00'
p525
aS'2015-01-29 19:00:00'
p526
aS'2015-01-28 09:00:00'
p527
aS'2015-01-28 10:00:00'
p528
aS'2015-01-28 11:00:00'
p529
aS'2015-01-28 12:00:00'
p530
aS'2015-01-28 13:00:00'
p531
aS'2015-01-28 14:00:00'
p532
aS'2015-01-28 15:00:00'
p533
aS'2015-01-28 16:00:00'
p534
aS'2015-01-28 17:00:00'
p535
aS'2015-01-28 18:00:00'
p536
aS'2015-01-28 19:00:00'
p537
aS'2015-01-28 20:00:00'
p538
aS'2015-01-28 21:00:00'
p539
aS'2015-01-28 22:00:00'
p540
aS'2015-01-28 23:00:00'
p541
aS'2015-01-29 20:00:00'
p542
aS'2015-01-29 21:00:00'
p543
aS'2015-01-29 22:00:00'
p544
aS'2015-01-29 23:00:00'
p545
aS'2015-01-30 09:00:00'
p546
aS'2015-01-30 10:00:00'
p547
aS'2015-01-30 11:00:00'
p548
aS'2015-01-30 12:00:00'
p549
aS'2015-01-30 13:00:00'
p550
aS'2015-01-30 14:00:00'
p551
aS'2015-01-30 15:00:00'
p552
aS'2015-01-30 16:00:00'
p553
aS'2015-01-30 17:00:00'
p554
aS'2015-01-30 18:00:00'
p555
aS'2015-01-30 19:00:00'
p556
aS'2015-01-30 20:00:00'
p557
aS'2015-01-30 21:00:00'
p558
aS'2015-01-30 22:00:00'
p559
aS'2015-01-30 23:00:00'
p560
asg102
g103
sg104
(lp561
Vhttp://scontent-b.cdninstagram.com/hphotos-xfa1/t51.2885-15/s150x150/e15/10948808_598121200290076_1549364018_n.jpg
p562
aVhttp://scontent-a.cdninstagram.com/hphotos-xaf1/t51.2885-15/s150x150/e15/10948668_821116434628310_195857290_n.jpg
p563
aVhttp://scontent-a.cdninstagram.com/hphotos-xaf1/t51.2885-15/s150x150/e15/10958413_339270062927793_339969294_n.jpg
p564
aVhttp://scontent-a.cdninstagram.com/hphotos-xaf1/t51.2885-15/s150x150/e15/10948366_514855988654980_2091117669_n.jpg
p565
aVhttp://scontent-b.cdninstagram.com/hphotos-xaf1/t51.2885-15/s150x150/e15/10919629_1405288853105304_277589958_n.jpg
p566
aVhttp://scontent-b.cdninstagram.com/hphotos-xaf1/t51.2885-15/s150x150/e15/10895319_589671444496598_1718206707_n.jpg
p567
aVhttp://scontent-a.cdninstagram.com/hphotos-xaf1/t51.2885-15/s150x150/e15/10963878_1542787952659269_1771136849_n.jpg
p568
aVhttp://scontent-a.cdninstagram.com/hphotos-xpf1/t51.2885-15/s150x150/e15/10525517_1601524033417035_2008341282_n.jpg
p569
aVhttp://scontent-b.cdninstagram.com/hphotos-xap1/t51.2885-15/s150x150/e15/929216_1411812762446599_451474790_n.jpg
p570
aVhttp://scontent-b.cdninstagram.com/hphotos-xfp1/t51.2885-15/s150x150/e15/10525554_432836640198993_1359262070_n.jpg
p571
aVhttp://scontent-a.cdninstagram.com/hphotos-xaf1/t51.2885-15/s150x150/e15/10838326_1542343012683906_1400268635_n.jpg
p572
aVhttp://scontent-b.cdninstagram.com/hphotos-xaf1/t51.2885-15/s150x150/e15/10946644_761545390607299_614172918_n.jpg
p573
aVhttp://scontent-b.cdninstagram.com/hphotos-xpa1/t51.2885-15/s150x150/e15/10175163_1539014183044358_707223044_n.jpg
p574
aVhttp://scontent-b.cdninstagram.com/hphotos-xfp1/t51.2885-15/s150x150/e15/10518120_587282588069087_474472973_n.jpg
p575
aVhttp://scontent-b.cdninstagram.com/hphotos-xap1/t51.2885-15/s150x150/e15/924657_395291140643113_889968113_n.jpg
p576
aVhttp://scontent-a.cdninstagram.com/hphotos-xaf1/t51.2885-15/s150x150/e15/10895478_994856557191607_1054586683_n.jpg
p577
aVhttp://scontent-b.cdninstagram.com/hphotos-xfa1/t51.2885-15/s150x150/e15/10919369_588376801297824_1300748326_n.jpg
p578
aVhttp://scontent-b.cdninstagram.com/hphotos-frc/t51.2885-15/s150x150/e15/10543531_764548626947151_1848029893_n.jpg
p579
asg124
F-73.962973589
sg125
(lp580
I11
aI23
aI11
aI27
aI26
aI51
aI52
aI43
aI41
aI24
aI24
aI31
aI28
aI16
aI19
aI16
aI9
aI19
aI9
aI12
aI13
aI8
aI14
aI8
aI8
aI6
aI10
aI7
aI6
aI4
aI6
aI10
aI1
aI3
aI0
aI6
aI4
aI4
aI10
aI6
aI8
aI10
aI7
aI2
aI3
aI3
aI4
aI9
aI7
aI11
aI9
aI17
aI11
aI12
aI9
aI9
aI0
aI2
aI6
aI6
aI10
aI14
aI6
aI14
aI10
aI6
aI9
aI7
aI3
aI0
aI4
aI5
aI5
aI1
aI9
aI2
aI4
aI8
aI10
aI10
aI7
aI11
aI12
aI15
aI10
aI20
aI24
aI27
aI21
aI5
asg127
F40.779129198
sg128
S'The Metropolitan Museum of Art'
p581
ssg1
(g5
S'W\xbb\xb0\x0c\x00\x00\x00\x00'
p582
tp583
Rp584
(dp585
g12
(lp586
S'2015-01-25 09:00:00'
p587
aS'2015-01-25 10:00:00'
p588
aS'2015-01-25 11:00:00'
p589
aS'2015-01-25 12:00:00'
p590
aS'2015-01-25 13:00:00'
p591
aS'2015-01-25 14:00:00'
p592
aS'2015-01-25 15:00:00'
p593
aS'2015-01-25 16:00:00'
p594
aS'2015-01-25 17:00:00'
p595
aS'2015-01-25 18:00:00'
p596
aS'2015-01-25 19:00:00'
p597
aS'2015-01-25 20:00:00'
p598
aS'2015-01-25 21:00:00'
p599
aS'2015-01-25 22:00:00'
p600
aS'2015-01-25 23:00:00'
p601
aS'2015-01-26 09:00:00'
p602
aS'2015-01-26 10:00:00'
p603
aS'2015-01-26 11:00:00'
p604
aS'2015-01-26 12:00:00'
p605
aS'2015-01-26 13:00:00'
p606
aS'2015-01-26 14:00:00'
p607
aS'2015-01-26 15:00:00'
p608
aS'2015-01-26 16:00:00'
p609
aS'2015-01-26 17:00:00'
p610
aS'2015-01-26 18:00:00'
p611
aS'2015-01-26 19:00:00'
p612
aS'2015-01-26 20:00:00'
p613
aS'2015-01-26 21:00:00'
p614
aS'2015-01-26 22:00:00'
p615
aS'2015-01-26 23:00:00'
p616
aS'2015-01-27 09:00:00'
p617
aS'2015-01-27 10:00:00'
p618
aS'2015-01-27 11:00:00'
p619
aS'2015-01-27 12:00:00'
p620
aS'2015-01-27 13:00:00'
p621
aS'2015-01-27 14:00:00'
p622
aS'2015-01-27 15:00:00'
p623
aS'2015-01-27 16:00:00'
p624
aS'2015-01-27 17:00:00'
p625
aS'2015-01-27 18:00:00'
p626
aS'2015-01-27 19:00:00'
p627
aS'2015-01-27 20:00:00'
p628
aS'2015-01-27 21:00:00'
p629
aS'2015-01-27 22:00:00'
p630
aS'2015-01-27 23:00:00'
p631
aS'2015-01-29 09:00:00'
p632
aS'2015-01-29 10:00:00'
p633
aS'2015-01-29 11:00:00'
p634
aS'2015-01-29 12:00:00'
p635
aS'2015-01-29 13:00:00'
p636
aS'2015-01-29 14:00:00'
p637
aS'2015-01-29 15:00:00'
p638
aS'2015-01-29 16:00:00'
p639
aS'2015-01-29 17:00:00'
p640
aS'2015-01-29 18:00:00'
p641
aS'2015-01-29 19:00:00'
p642
aS'2015-01-28 09:00:00'
p643
aS'2015-01-28 10:00:00'
p644
aS'2015-01-28 11:00:00'
p645
aS'2015-01-28 12:00:00'
p646
aS'2015-01-28 13:00:00'
p647
aS'2015-01-28 14:00:00'
p648
aS'2015-01-28 15:00:00'
p649
aS'2015-01-28 16:00:00'
p650
aS'2015-01-28 17:00:00'
p651
aS'2015-01-28 18:00:00'
p652
aS'2015-01-28 19:00:00'
p653
aS'2015-01-28 20:00:00'
p654
aS'2015-01-28 21:00:00'
p655
aS'2015-01-28 22:00:00'
p656
aS'2015-01-28 23:00:00'
p657
aS'2015-01-29 20:00:00'
p658
aS'2015-01-29 21:00:00'
p659
aS'2015-01-29 22:00:00'
p660
aS'2015-01-29 23:00:00'
p661
aS'2015-01-30 09:00:00'
p662
aS'2015-01-30 10:00:00'
p663
aS'2015-01-30 11:00:00'
p664
aS'2015-01-30 12:00:00'
p665
aS'2015-01-30 13:00:00'
p666
aS'2015-01-30 14:00:00'
p667
aS'2015-01-30 15:00:00'
p668
aS'2015-01-30 16:00:00'
p669
aS'2015-01-30 17:00:00'
p670
aS'2015-01-30 18:00:00'
p671
aS'2015-01-30 19:00:00'
p672
aS'2015-01-30 20:00:00'
p673
aS'2015-01-30 21:00:00'
p674
aS'2015-01-30 22:00:00'
p675
aS'2015-01-30 23:00:00'
p676
asg102
g103
sg104
(lp677
Vhttp://scontent-a.cdninstagram.com/hphotos-xaf1/t51.2885-15/s150x150/e15/10919728_788874151166940_1256381237_n.jpg
p678
aVhttp://scontent-b.cdninstagram.com/hphotos-xfa1/t51.2885-15/s150x150/e15/10895174_1397846463852530_491871751_n.jpg
p679
aVhttp://scontent-a.cdninstagram.com/hphotos-xap1/t51.2885-15/s150x150/e15/10522827_565341450268652_1924230857_n.jpg
p680
aVhttp://scontent-b.cdninstagram.com/hphotos-xpf1/t51.2885-15/s150x150/e15/10268924_924770557542646_930161661_n.jpg
p681
aVhttp://scontent-b.cdninstagram.com/hphotos-xfa1/t51.2885-15/s150x150/e15/10919672_380199778834599_1692951465_n.jpg
p682
aVhttp://scontent-b.cdninstagram.com/hphotos-xaf1/t51.2885-15/s150x150/e15/10903375_1583404858538870_1966402518_n.jpg
p683
aVhttp://scontent-a.cdninstagram.com/hphotos-xpa1/t51.2885-15/s150x150/e15/10748306_785396264880682_869546479_n.jpg
p684
aVhttp://scontent-b.cdninstagram.com/hphotos-xfa1/t51.2885-15/s150x150/e15/10948928_1601670390063040_1273900032_n.jpg
p685
aVhttp://scontent-a.cdninstagram.com/hphotos-xaf1/t51.2885-15/s150x150/e15/10946377_1546748728936069_408319370_n.jpg
p686
aVhttp://scontent-b.cdninstagram.com/hphotos-xaf1/t51.2885-15/s150x150/e15/10954245_1529359664011514_1080451246_n.jpg
p687
aVhttp://scontent-a.cdninstagram.com/hphotos-xaf1/t51.2885-15/s150x150/e15/10932331_1548183368773738_1030469694_n.jpg
p688
aVhttp://scontent-a.cdninstagram.com/hphotos-xfa1/t51.2885-15/s150x150/e15/10963955_428716420611012_825130483_n.jpg
p689
aVhttp://scontent-a.cdninstagram.com/hphotos-xfa1/t51.2885-15/s150x150/e15/10950401_788952554532682_1168324196_n.jpg
p690
aVhttp://scontent-a.cdninstagram.com/hphotos-xaf1/t51.2885-15/s150x150/e15/10950301_378143552365589_943032705_n.jpg
p691
aVhttp://scontent-b.cdninstagram.com/hphotos-xaf1/t51.2885-15/s150x150/e15/10932121_854133251295225_2003503903_n.jpg
p692
aVhttp://scontent-b.cdninstagram.com/hphotos-xaf1/t51.2885-15/s150x150/e15/10963977_1550287758587888_304171804_n.jpg
p693
aVhttp://scontent-a.cdninstagram.com/hphotos-xfa1/t51.2885-15/s150x150/e15/10948181_847032165353816_1257016460_n.jpg
p694
aVhttp://scontent-b.cdninstagram.com/hphotos-xaf1/t51.2885-15/s150x150/e15/10919359_750542911709026_563426759_n.jpg
p695
asg124
F-73.973965994
sg125
(lp696
I2
aI9
aI15
aI7
aI7
aI8
aI9
aI10
aI12
aI12
aI8
aI5
aI7
aI4
aI4
aI8
aI5
aI9
aI4
aI11
aI18
aI25
aI26
aI27
aI17
aI9
aI5
aI4
aI13
aI5
aI5
aI4
aI7
aI3
aI2
aI9
aI9
aI9
aI7
aI10
aI4
aI5
aI4
aI4
aI3
aI2
aI7
aI11
aI4
aI3
aI5
aI7
aI9
aI5
aI4
aI4
aI7
aI5
aI9
aI6
aI6
aI5
aI6
aI5
aI9
aI6
aI6
aI7
aI2
aI0
aI4
aI5
aI4
aI6
aI2
aI5
aI3
aI5
aI7
aI8
aI8
aI3
aI6
aI9
aI13
aI8
aI3
aI8
aI2
aI5
asg127
F40.762689737
sg128
S'5th Avenue Manhattan NY'
p697
ssg1
(g5
S'\xd8\xc4-\x00\x00\x00\x00\x00'
p698
tp699
Rp700
(dp701
g12
(lp702
S'2015-01-25 09:00:00'
p703
aS'2015-01-25 10:00:00'
p704
aS'2015-01-25 11:00:00'
p705
aS'2015-01-25 12:00:00'
p706
aS'2015-01-25 13:00:00'
p707
aS'2015-01-25 14:00:00'
p708
aS'2015-01-25 15:00:00'
p709
aS'2015-01-25 16:00:00'
p710
aS'2015-01-25 17:00:00'
p711
aS'2015-01-25 18:00:00'
p712
aS'2015-01-25 19:00:00'
p713
aS'2015-01-25 20:00:00'
p714
aS'2015-01-25 21:00:00'
p715
aS'2015-01-25 22:00:00'
p716
aS'2015-01-25 23:00:00'
p717
aS'2015-01-26 09:00:00'
p718
aS'2015-01-26 10:00:00'
p719
aS'2015-01-26 11:00:00'
p720
aS'2015-01-26 12:00:00'
p721
aS'2015-01-26 13:00:00'
p722
aS'2015-01-26 14:00:00'
p723
aS'2015-01-26 15:00:00'
p724
aS'2015-01-26 16:00:00'
p725
aS'2015-01-26 17:00:00'
p726
aS'2015-01-26 18:00:00'
p727
aS'2015-01-26 19:00:00'
p728
aS'2015-01-26 20:00:00'
p729
aS'2015-01-26 21:00:00'
p730
aS'2015-01-26 22:00:00'
p731
aS'2015-01-26 23:00:00'
p732
aS'2015-01-27 09:00:00'
p733
aS'2015-01-27 10:00:00'
p734
aS'2015-01-27 11:00:00'
p735
aS'2015-01-27 12:00:00'
p736
aS'2015-01-27 13:00:00'
p737
aS'2015-01-27 14:00:00'
p738
aS'2015-01-27 15:00:00'
p739
aS'2015-01-27 16:00:00'
p740
aS'2015-01-27 17:00:00'
p741
aS'2015-01-27 18:00:00'
p742
aS'2015-01-27 19:00:00'
p743
aS'2015-01-27 20:00:00'
p744
aS'2015-01-27 21:00:00'
p745
aS'2015-01-27 22:00:00'
p746
aS'2015-01-27 23:00:00'
p747
aS'2015-01-29 09:00:00'
p748
aS'2015-01-29 10:00:00'
p749
aS'2015-01-29 11:00:00'
p750
aS'2015-01-29 12:00:00'
p751
aS'2015-01-29 13:00:00'
p752
aS'2015-01-29 14:00:00'
p753
aS'2015-01-29 15:00:00'
p754
aS'2015-01-29 16:00:00'
p755
aS'2015-01-29 17:00:00'
p756
aS'2015-01-29 18:00:00'
p757
aS'2015-01-29 19:00:00'
p758
aS'2015-01-28 09:00:00'
p759
aS'2015-01-28 10:00:00'
p760
aS'2015-01-28 11:00:00'
p761
aS'2015-01-28 12:00:00'
p762
aS'2015-01-28 13:00:00'
p763
aS'2015-01-28 14:00:00'
p764
aS'2015-01-28 15:00:00'
p765
aS'2015-01-28 16:00:00'
p766
aS'2015-01-28 17:00:00'
p767
aS'2015-01-28 18:00:00'
p768
aS'2015-01-28 19:00:00'
p769
aS'2015-01-28 20:00:00'
p770
aS'2015-01-28 21:00:00'
p771
aS'2015-01-28 22:00:00'
p772
aS'2015-01-28 23:00:00'
p773
aS'2015-01-29 20:00:00'
p774
aS'2015-01-29 21:00:00'
p775
aS'2015-01-29 22:00:00'
p776
aS'2015-01-29 23:00:00'
p777
aS'2015-01-30 09:00:00'
p778
aS'2015-01-30 10:00:00'
p779
aS'2015-01-30 11:00:00'
p780
aS'2015-01-30 12:00:00'
p781
aS'2015-01-30 13:00:00'
p782
aS'2015-01-30 14:00:00'
p783
aS'2015-01-30 15:00:00'
p784
aS'2015-01-30 16:00:00'
p785
aS'2015-01-30 17:00:00'
p786
aS'2015-01-30 18:00:00'
p787
aS'2015-01-30 19:00:00'
p788
aS'2015-01-30 20:00:00'
p789
aS'2015-01-30 21:00:00'
p790
aS'2015-01-30 22:00:00'
p791
aS'2015-01-30 23:00:00'
p792
asg102
g103
sg104
(lp793
Vhttp://scontent-a.cdninstagram.com/hphotos-xaf1/t51.2885-15/s150x150/e15/10919743_397233867124269_1895718499_n.jpg
p794
aVhttp://scontent-b.cdninstagram.com/hphotos-xaf1/t51.2885-15/s150x150/e15/10948918_734060326690744_1611973999_n.jpg
p795
aVhttp://scontent-a.cdninstagram.com/hphotos-xaf1/t51.2885-15/s150x150/e15/10954377_405438686285166_394554481_n.jpg
p796
aVhttp://scontent-a.cdninstagram.com/hphotos-xaf1/t51.2885-15/s150x150/e15/10963974_309823469216334_1031662266_n.jpg
p797
aVhttp://scontent-b.cdninstagram.com/hphotos-xpa1/t51.2885-15/s150x150/e15/10453808_427640037398589_344248498_n.jpg
p798
aVhttp://scontent-b.cdninstagram.com/hphotos-xpa1/t51.2885-15/s150x150/e15/927385_332298293638006_83401858_n.jpg
p799
aVhttp://scontent-b.cdninstagram.com/hphotos-xaf1/t51.2885-15/s150x150/e15/10948296_976373449155897_570524329_n.jpg
p800
aVhttp://scontent-a.cdninstagram.com/hphotos-xaf1/t51.2885-15/s150x150/e15/10948759_319612841581255_157640851_n.jpg
p801
aVhttp://scontent-a.cdninstagram.com/hphotos-xaf1/t51.2885-15/s150x150/e15/10914202_1546490932301041_521222818_n.jpg
p802
aVhttp://scontent-b.cdninstagram.com/hphotos-xfa1/t51.2885-15/s150x150/e15/10957397_416991208457635_1902659104_n.jpg
p803
aVhttp://scontent-b.cdninstagram.com/hphotos-xaf1/t51.2885-15/s150x150/e15/10932490_686594748128857_1769147748_n.jpg
p804
aVhttp://scontent-a.cdninstagram.com/hphotos-xfa1/t51.2885-15/s150x150/e15/10963991_885142624885141_710227725_n.jpg
p805
aVhttp://scontent-a.cdninstagram.com/hphotos-xfa1/t51.2885-15/s150x150/e15/10948688_1376760105969273_2147150217_n.jpg
p806
aVhttp://scontent-a.cdninstagram.com/hphotos-xaf1/t51.2885-15/s150x150/e15/10950409_1423211891303813_516694421_n.jpg
p807
aVhttp://scontent-b.cdninstagram.com/hphotos-xfa1/t51.2885-15/s150x150/e15/10932371_1555141641422845_867034218_n.jpg
p808
aVhttp://scontent-a.cdninstagram.com/hphotos-xfa1/t51.2885-15/s150x150/e15/10684198_1555879477962728_535873620_n.jpg
p809
aVhttp://scontent-a.cdninstagram.com/hphotos-xaf1/t51.2885-15/s150x150/e15/10919262_416127268555969_733271479_n.jpg
p810
aVhttp://scontent-b.cdninstagram.com/hphotos-xaf1/t51.2885-15/s150x150/e15/10932490_725478914231945_1423013411_n.jpg
p811
asg124
F-73.977121461
sg125
(lp812
I6
aI10
aI19
aI35
aI24
aI27
aI53
aI45
aI33
aI38
aI35
aI16
aI19
aI8
aI5
aI3
aI2
aI7
aI15
aI15
aI11
aI20
aI12
aI14
aI10
aI5
aI7
aI1
aI3
aI3
aI3
aI4
aI2
aI1
aI2
aI2
aI4
aI5
aI3
aI6
aI4
aI3
aI2
aI2
aI5
aI2
aI1
aI4
aI11
aI7
aI11
aI14
aI12
aI10
aI13
aI9
aI1
aI2
aI2
aI11
aI12
aI13
aI10
aI15
aI8
aI3
aI3
aI5
aI6
aI0
aI1
aI5
aI9
aI3
aI8
aI2
aI2
aI5
aI4
aI11
aI11
aI14
aI9
aI23
aI23
aI36
aI18
aI21
aI14
aI13
asg127
F40.761477712
sg128
S'MoMA The Museum of Modern Art'
p813
ssg1
(g5
S'\xeb\xfa\xce\x17\x00\x00\x00\x00'
p814
tp815
Rp816
(dp817
g12
(lp818
S'2015-01-25 09:00:00'
p819
aS'2015-01-25 10:00:00'
p820
aS'2015-01-25 11:00:00'
p821
aS'2015-01-25 12:00:00'
p822
aS'2015-01-25 13:00:00'
p823
aS'2015-01-25 14:00:00'
p824
aS'2015-01-25 15:00:00'
p825
aS'2015-01-25 16:00:00'
p826
aS'2015-01-25 17:00:00'
p827
aS'2015-01-25 18:00:00'
p828
aS'2015-01-25 19:00:00'
p829
aS'2015-01-25 20:00:00'
p830
aS'2015-01-25 21:00:00'
p831
aS'2015-01-25 22:00:00'
p832
aS'2015-01-25 23:00:00'
p833
aS'2015-01-26 09:00:00'
p834
aS'2015-01-26 10:00:00'
p835
aS'2015-01-26 11:00:00'
p836
aS'2015-01-26 12:00:00'
p837
aS'2015-01-26 13:00:00'
p838
aS'2015-01-26 14:00:00'
p839
aS'2015-01-26 15:00:00'
p840
aS'2015-01-26 16:00:00'
p841
aS'2015-01-26 17:00:00'
p842
aS'2015-01-26 18:00:00'
p843
aS'2015-01-26 19:00:00'
p844
aS'2015-01-26 20:00:00'
p845
aS'2015-01-26 21:00:00'
p846
aS'2015-01-26 22:00:00'
p847
aS'2015-01-26 23:00:00'
p848
aS'2015-01-27 09:00:00'
p849
aS'2015-01-27 10:00:00'
p850
aS'2015-01-27 11:00:00'
p851
aS'2015-01-27 12:00:00'
p852
aS'2015-01-27 13:00:00'
p853
aS'2015-01-27 14:00:00'
p854
aS'2015-01-27 15:00:00'
p855
aS'2015-01-27 16:00:00'
p856
aS'2015-01-27 17:00:00'
p857
aS'2015-01-27 18:00:00'
p858
aS'2015-01-27 19:00:00'
p859
aS'2015-01-27 20:00:00'
p860
aS'2015-01-27 21:00:00'
p861
aS'2015-01-27 22:00:00'
p862
aS'2015-01-27 23:00:00'
p863
aS'2015-01-29 09:00:00'
p864
aS'2015-01-29 10:00:00'
p865
aS'2015-01-29 11:00:00'
p866
aS'2015-01-29 12:00:00'
p867
aS'2015-01-29 13:00:00'
p868
aS'2015-01-29 14:00:00'
p869
aS'2015-01-29 15:00:00'
p870
aS'2015-01-29 16:00:00'
p871
aS'2015-01-29 17:00:00'
p872
aS'2015-01-29 18:00:00'
p873
aS'2015-01-29 19:00:00'
p874
aS'2015-01-28 09:00:00'
p875
aS'2015-01-28 10:00:00'
p876
aS'2015-01-28 11:00:00'
p877
aS'2015-01-28 12:00:00'
p878
aS'2015-01-28 13:00:00'
p879
aS'2015-01-28 14:00:00'
p880
aS'2015-01-28 15:00:00'
p881
aS'2015-01-28 16:00:00'
p882
aS'2015-01-28 17:00:00'
p883
aS'2015-01-28 18:00:00'
p884
aS'2015-01-28 19:00:00'
p885
aS'2015-01-28 20:00:00'
p886
aS'2015-01-28 21:00:00'
p887
aS'2015-01-28 22:00:00'
p888
aS'2015-01-28 23:00:00'
p889
aS'2015-01-29 20:00:00'
p890
aS'2015-01-29 21:00:00'
p891
aS'2015-01-29 22:00:00'
p892
aS'2015-01-29 23:00:00'
p893
aS'2015-01-30 09:00:00'
p894
aS'2015-01-30 10:00:00'
p895
aS'2015-01-30 11:00:00'
p896
aS'2015-01-30 12:00:00'
p897
aS'2015-01-30 13:00:00'
p898
aS'2015-01-30 14:00:00'
p899
aS'2015-01-30 15:00:00'
p900
aS'2015-01-30 16:00:00'
p901
aS'2015-01-30 17:00:00'
p902
aS'2015-01-30 18:00:00'
p903
aS'2015-01-30 19:00:00'
p904
aS'2015-01-30 20:00:00'
p905
aS'2015-01-30 21:00:00'
p906
aS'2015-01-30 22:00:00'
p907
aS'2015-01-30 23:00:00'
p908
asg102
g103
sg104
(lp909
Vhttp://scontent-b.cdninstagram.com/hphotos-xaf1/l/t51.2885-15/s150x150/e15/10954692_1541309636140155_1693041268_n.jpg
p910
aVhttp://scontent-b.cdninstagram.com/hphotos-xap1/t51.2885-15/s150x150/e15/10731846_1550821061842947_683552890_n.jpg
p911
aVhttp://scontent-a.cdninstagram.com/hphotos-xaf1/t51.2885-15/s150x150/e15/10948473_394978154002038_1776671950_n.jpg
p912
aVhttp://scontent-a.cdninstagram.com/hphotos-xaf1/t51.2885-15/s150x150/e15/10959070_832080053515432_1055735386_n.jpg
p913
aVhttp://scontent-b.cdninstagram.com/hphotos-xfa1/t51.2885-15/s150x150/e15/10932611_621385751295874_1416499064_n.jpg
p914
aVhttp://scontent-a.cdninstagram.com/hphotos-xfa1/t51.2885-15/s150x150/e15/10948970_838645686192463_545855275_n.jpg
p915
aVhttp://scontent-a.cdninstagram.com/hphotos-xaf1/t51.2885-15/s150x150/e15/10948702_412816218870719_1963025684_n.jpg
p916
aVhttp://scontent-b.cdninstagram.com/hphotos-xap1/t51.2885-15/s150x150/e15/924027_334717283398573_1821372519_n.jpg
p917
aVhttp://scontent-a.cdninstagram.com/hphotos-xpa1/t51.2885-15/s150x150/e15/928906_906625046035350_1124909520_n.jpg
p918
aVhttp://scontent-b.cdninstagram.com/hphotos-xfa1/t51.2885-15/s150x150/e15/10895369_335233656674001_41739190_n.jpg
p919
aVhttp://scontent-a.cdninstagram.com/hphotos-xfa1/t51.2885-15/s150x150/e15/10948817_334190266779842_1289249178_n.jpg
p920
aVhttp://scontent-b.cdninstagram.com/hphotos-xaf1/t51.2885-15/s150x150/e15/10946268_745691712217320_1857369996_n.jpg
p921
aVhttp://scontent-a.cdninstagram.com/hphotos-xfa1/t51.2885-15/s150x150/e15/10946696_1594162140815163_1342228919_n.jpg
p922
aVhttp://scontent-b.cdninstagram.com/hphotos-xfa1/t51.2885-15/s150x150/e15/10963811_376816509166904_799515144_n.jpg
p923
aVhttp://scontent-b.cdninstagram.com/hphotos-xaf1/t51.2885-15/s150x150/e15/10954404_1553067274961760_553443550_n.jpg
p924
aVhttp://scontent-a.cdninstagram.com/hphotos-xfa1/t51.2885-15/s150x150/e15/10950635_1477857215768239_321296867_n.jpg
p925
aVhttp://scontent-b.cdninstagram.com/hphotos-xaf1/t51.2885-15/s150x150/e15/10957105_1550251815234217_1296973213_n.jpg
p926
aVhttp://scontent-a.cdninstagram.com/hphotos-xaf1/t51.2885-15/s150x150/e15/10932394_389296837918413_1384419132_n.jpg
p927
asg124
F-74.012568353
sg125
(lp928
I7
aI10
aI11
aI8
aI17
aI19
aI16
aI17
aI25
aI31
aI16
aI10
aI14
aI15
aI7
aI6
aI5
aI9
aI9
aI16
aI15
aI22
aI10
aI12
aI11
aI14
aI6
aI4
aI4
aI4
aI4
aI2
aI6
aI2
aI6
aI6
aI3
aI5
aI10
aI6
aI8
aI3
aI2
aI3
aI3
aI7
aI4
aI8
aI7
aI10
aI8
aI10
aI13
aI3
aI13
aI6
aI4
aI7
aI2
aI8
aI10
aI6
aI11
aI7
aI12
aI3
aI2
aI4
aI6
aI0
aI6
aI10
aI6
aI7
aI8
aI3
aI5
aI8
aI11
aI5
aI7
aI8
aI9
aI13
aI23
aI6
aI11
aI2
aI5
aI2
asg127
F40.711755027
sg128
S'One World Trade Center'
p929
ssg1
(g5
S'\xf5\xd1-\x00\x00\x00\x00\x00'
p930
tp931
Rp932
(dp933
g12
(lp934
S'2015-01-25 09:00:00'
p935
aS'2015-01-25 10:00:00'
p936
aS'2015-01-25 11:00:00'
p937
aS'2015-01-25 12:00:00'
p938
aS'2015-01-25 13:00:00'
p939
aS'2015-01-25 14:00:00'
p940
aS'2015-01-25 15:00:00'
p941
aS'2015-01-25 16:00:00'
p942
aS'2015-01-25 17:00:00'
p943
aS'2015-01-25 18:00:00'
p944
aS'2015-01-25 19:00:00'
p945
aS'2015-01-25 20:00:00'
p946
aS'2015-01-25 21:00:00'
p947
aS'2015-01-25 22:00:00'
p948
aS'2015-01-25 23:00:00'
p949
aS'2015-01-26 09:00:00'
p950
aS'2015-01-26 10:00:00'
p951
aS'2015-01-26 11:00:00'
p952
aS'2015-01-26 12:00:00'
p953
aS'2015-01-26 13:00:00'
p954
aS'2015-01-26 14:00:00'
p955
aS'2015-01-26 15:00:00'
p956
aS'2015-01-26 16:00:00'
p957
aS'2015-01-26 17:00:00'
p958
aS'2015-01-26 18:00:00'
p959
aS'2015-01-26 19:00:00'
p960
aS'2015-01-26 20:00:00'
p961
aS'2015-01-26 21:00:00'
p962
aS'2015-01-26 22:00:00'
p963
aS'2015-01-26 23:00:00'
p964
aS'2015-01-27 09:00:00'
p965
aS'2015-01-27 10:00:00'
p966
aS'2015-01-27 11:00:00'
p967
aS'2015-01-27 12:00:00'
p968
aS'2015-01-27 13:00:00'
p969
aS'2015-01-27 14:00:00'
p970
aS'2015-01-27 15:00:00'
p971
aS'2015-01-27 16:00:00'
p972
aS'2015-01-27 17:00:00'
p973
aS'2015-01-27 18:00:00'
p974
aS'2015-01-27 19:00:00'
p975
aS'2015-01-27 20:00:00'
p976
aS'2015-01-27 21:00:00'
p977
aS'2015-01-27 22:00:00'
p978
aS'2015-01-27 23:00:00'
p979
aS'2015-01-29 09:00:00'
p980
aS'2015-01-29 10:00:00'
p981
aS'2015-01-29 11:00:00'
p982
aS'2015-01-29 12:00:00'
p983
aS'2015-01-29 13:00:00'
p984
aS'2015-01-29 14:00:00'
p985
aS'2015-01-29 15:00:00'
p986
aS'2015-01-29 16:00:00'
p987
aS'2015-01-29 17:00:00'
p988
aS'2015-01-29 18:00:00'
p989
aS'2015-01-29 19:00:00'
p990
aS'2015-01-28 09:00:00'
p991
aS'2015-01-28 10:00:00'
p992
aS'2015-01-28 11:00:00'
p993
aS'2015-01-28 12:00:00'
p994
aS'2015-01-28 13:00:00'
p995
aS'2015-01-28 14:00:00'
p996
aS'2015-01-28 15:00:00'
p997
aS'2015-01-28 16:00:00'
p998
aS'2015-01-28 17:00:00'
p999
aS'2015-01-28 18:00:00'
p1000
aS'2015-01-28 19:00:00'
p1001
aS'2015-01-28 20:00:00'
p1002
aS'2015-01-28 21:00:00'
p1003
aS'2015-01-28 22:00:00'
p1004
aS'2015-01-28 23:00:00'
p1005
aS'2015-01-29 20:00:00'
p1006
aS'2015-01-29 21:00:00'
p1007
aS'2015-01-29 22:00:00'
p1008
aS'2015-01-29 23:00:00'
p1009
aS'2015-01-30 09:00:00'
p1010
aS'2015-01-30 10:00:00'
p1011
aS'2015-01-30 11:00:00'
p1012
aS'2015-01-30 12:00:00'
p1013
aS'2015-01-30 13:00:00'
p1014
aS'2015-01-30 14:00:00'
p1015
aS'2015-01-30 15:00:00'
p1016
aS'2015-01-30 16:00:00'
p1017
aS'2015-01-30 17:00:00'
p1018
aS'2015-01-30 18:00:00'
p1019
aS'2015-01-30 19:00:00'
p1020
aS'2015-01-30 20:00:00'
p1021
aS'2015-01-30 21:00:00'
p1022
aS'2015-01-30 22:00:00'
p1023
aS'2015-01-30 23:00:00'
p1024
asg102
g103
sg104
(lp1025
Vhttp://scontent-a.cdninstagram.com/hphotos-xaf1/t51.2885-15/s150x150/e15/10963977_1529431360657122_1507494441_n.jpg
p1026
aVhttp://scontent-a.cdninstagram.com/hphotos-xaf1/t51.2885-15/s150x150/e15/10963771_607900459353484_1125146292_n.jpg
p1027
aVhttp://scontent-a.cdninstagram.com/hphotos-xaf1/t51.2885-15/s150x150/e15/10950615_1533184620295403_2014628640_n.jpg
p1028
aVhttp://scontent-b.cdninstagram.com/hphotos-xaf1/t51.2885-15/s150x150/e15/10914202_819031268163340_792974049_n.jpg
p1029
aVhttp://scontent-a.cdninstagram.com/hphotos-xap1/t51.2885-15/s150x150/e15/10542762_851083458288327_1923978430_n.jpg
p1030
aVhttp://scontent-b.cdninstagram.com/hphotos-xfa1/t51.2885-15/s150x150/e15/10919354_434424336709105_1202031445_n.jpg
p1031
aVhttp://scontent-b.cdninstagram.com/hphotos-xaf1/t51.2885-15/s150x150/e15/10956549_634191703376715_1323158350_n.jpg
p1032
aVhttp://scontent-b.cdninstagram.com/hphotos-xaf1/t51.2885-15/s150x150/e15/10899450_364569410417115_546891039_n.jpg
p1033
aVhttp://scontent-b.cdninstagram.com/hphotos-xaf1/t51.2885-15/s150x150/e15/10932456_716533541796108_1764790124_n.jpg
p1034
aVhttp://scontent-b.cdninstagram.com/hphotos-xaf1/t51.2885-15/s150x150/e15/10953583_519743678164839_290747747_n.jpg
p1035
aVhttp://scontent-b.cdninstagram.com/hphotos-xaf1/t51.2885-15/s150x150/e15/10950469_223364027834178_2135985244_n.jpg
p1036
aVhttp://scontent-b.cdninstagram.com/hphotos-xfa1/t51.2885-15/s150x150/e15/10958612_1544141879193844_642108291_n.jpg
p1037
aVhttp://scontent-a.cdninstagram.com/hphotos-xpa1/t51.2885-15/s150x150/e15/924620_402879483208985_691359063_n.jpg
p1038
aVhttp://scontent-b.cdninstagram.com/hphotos-xaf1/t51.2885-15/s150x150/e15/10914580_1530400763906629_47318894_n.jpg
p1039
aVhttp://scontent-a.cdninstagram.com/hphotos-xaf1/t51.2885-15/s150x150/e15/10890517_1611591855739764_323691071_n.jpg
p1040
aVhttp://scontent-b.cdninstagram.com/hphotos-xaf1/t51.2885-15/s150x150/e15/10946439_800862726674782_1165081320_n.jpg
p1041
aVhttp://scontent-b.cdninstagram.com/hphotos-xaf1/t51.2885-15/s150x150/e15/10948758_1636460156575547_656731134_n.jpg
p1042
asg124
F-73.983729077
sg125
(lp1043
I4
aI3
aI4
aI7
aI13
aI9
aI14
aI9
aI10
aI10
aI9
aI10
aI9
aI10
aI7
aI6
aI2
aI9
aI7
aI6
aI22
aI21
aI23
aI29
aI23
aI12
aI4
aI9
aI6
aI4
aI8
aI5
aI11
aI6
aI6
aI7
aI9
aI14
aI7
aI17
aI20
aI9
aI4
aI10
aI8
aI4
aI8
aI7
aI7
aI7
aI10
aI12
aI9
aI8
aI10
aI3
aI4
aI5
aI2
aI6
aI5
aI5
aI9
aI7
aI14
aI12
aI7
aI6
aI9
aI0
aI3
aI7
aI9
aI7
aI8
aI4
aI5
aI7
aI6
aI6
aI4
aI9
aI20
aI6
aI5
aI8
aI12
aI9
aI4
aI4
asg127
F40.75392054
sg128
S'Bryant Park'
p1044
ssg1
(g5
S'\xf6o\xb4\x0c\x00\x00\x00\x00'
p1045
tp1046
Rp1047
(dp1048
g12
(lp1049
S'2015-01-25 09:00:00'
p1050
aS'2015-01-25 10:00:00'
p1051
aS'2015-01-25 11:00:00'
p1052
aS'2015-01-25 12:00:00'
p1053
aS'2015-01-25 13:00:00'
p1054
aS'2015-01-25 14:00:00'
p1055
aS'2015-01-25 15:00:00'
p1056
aS'2015-01-25 16:00:00'
p1057
aS'2015-01-25 17:00:00'
p1058
aS'2015-01-25 18:00:00'
p1059
aS'2015-01-25 19:00:00'
p1060
aS'2015-01-25 20:00:00'
p1061
aS'2015-01-25 21:00:00'
p1062
aS'2015-01-25 22:00:00'
p1063
aS'2015-01-25 23:00:00'
p1064
aS'2015-01-26 09:00:00'
p1065
aS'2015-01-26 10:00:00'
p1066
aS'2015-01-26 11:00:00'
p1067
aS'2015-01-26 12:00:00'
p1068
aS'2015-01-26 13:00:00'
p1069
aS'2015-01-26 14:00:00'
p1070
aS'2015-01-26 15:00:00'
p1071
aS'2015-01-26 16:00:00'
p1072
aS'2015-01-26 17:00:00'
p1073
aS'2015-01-26 18:00:00'
p1074
aS'2015-01-26 19:00:00'
p1075
aS'2015-01-26 20:00:00'
p1076
aS'2015-01-26 21:00:00'
p1077
aS'2015-01-26 22:00:00'
p1078
aS'2015-01-26 23:00:00'
p1079
aS'2015-01-27 09:00:00'
p1080
aS'2015-01-27 10:00:00'
p1081
aS'2015-01-27 11:00:00'
p1082
aS'2015-01-27 12:00:00'
p1083
aS'2015-01-27 13:00:00'
p1084
aS'2015-01-27 14:00:00'
p1085
aS'2015-01-27 15:00:00'
p1086
aS'2015-01-27 16:00:00'
p1087
aS'2015-01-27 17:00:00'
p1088
aS'2015-01-27 18:00:00'
p1089
aS'2015-01-27 19:00:00'
p1090
aS'2015-01-27 20:00:00'
p1091
aS'2015-01-27 21:00:00'
p1092
aS'2015-01-27 22:00:00'
p1093
aS'2015-01-27 23:00:00'
p1094
aS'2015-01-29 09:00:00'
p1095
aS'2015-01-29 10:00:00'
p1096
aS'2015-01-29 11:00:00'
p1097
aS'2015-01-29 12:00:00'
p1098
aS'2015-01-29 13:00:00'
p1099
aS'2015-01-29 14:00:00'
p1100
aS'2015-01-29 15:00:00'
p1101
aS'2015-01-29 16:00:00'
p1102
aS'2015-01-29 17:00:00'
p1103
aS'2015-01-29 18:00:00'
p1104
aS'2015-01-29 19:00:00'
p1105
aS'2015-01-28 09:00:00'
p1106
aS'2015-01-28 10:00:00'
p1107
aS'2015-01-28 11:00:00'
p1108
aS'2015-01-28 12:00:00'
p1109
aS'2015-01-28 13:00:00'
p1110
aS'2015-01-28 14:00:00'
p1111
aS'2015-01-28 15:00:00'
p1112
aS'2015-01-28 16:00:00'
p1113
aS'2015-01-28 17:00:00'
p1114
aS'2015-01-28 18:00:00'
p1115
aS'2015-01-28 19:00:00'
p1116
aS'2015-01-28 20:00:00'
p1117
aS'2015-01-28 21:00:00'
p1118
aS'2015-01-28 22:00:00'
p1119
aS'2015-01-28 23:00:00'
p1120
aS'2015-01-29 20:00:00'
p1121
aS'2015-01-29 21:00:00'
p1122
aS'2015-01-29 22:00:00'
p1123
aS'2015-01-29 23:00:00'
p1124
aS'2015-01-30 09:00:00'
p1125
aS'2015-01-30 10:00:00'
p1126
aS'2015-01-30 11:00:00'
p1127
aS'2015-01-30 12:00:00'
p1128
aS'2015-01-30 13:00:00'
p1129
aS'2015-01-30 14:00:00'
p1130
aS'2015-01-30 15:00:00'
p1131
aS'2015-01-30 16:00:00'
p1132
aS'2015-01-30 17:00:00'
p1133
aS'2015-01-30 18:00:00'
p1134
aS'2015-01-30 19:00:00'
p1135
aS'2015-01-30 20:00:00'
p1136
aS'2015-01-30 21:00:00'
p1137
aS'2015-01-30 22:00:00'
p1138
aS'2015-01-30 23:00:00'
p1139
asg102
g103
sg104
(lp1140
Vhttp://scontent-a.cdninstagram.com/hphotos-xaf1/t51.2885-15/s150x150/e15/10946277_779228755466120_1748293364_n.jpg
p1141
aVhttp://scontent-a.cdninstagram.com/hphotos-xap1/t51.2885-15/s150x150/e15/10518264_1545088982430751_756099715_n.jpg
p1142
aVhttp://scontent-b.cdninstagram.com/hphotos-xaf1/t51.2885-15/s150x150/e15/10953582_333137720206497_745989135_n.jpg
p1143
aVhttp://scontent-a.cdninstagram.com/hphotos-xaf1/t51.2885-15/s150x150/e15/10932339_595405030589452_1100412130_n.jpg
p1144
aVhttp://scontent-a.cdninstagram.com/hphotos-xfa1/t51.2885-15/s150x150/e15/10914458_1586863171549856_1768660635_n.jpg
p1145
aVhttp://scontent-b.cdninstagram.com/hphotos-xaf1/t51.2885-15/s150x150/e15/10919523_1551784651741801_1281876818_n.jpg
p1146
aVhttp://scontent-b.cdninstagram.com/hphotos-xfa1/t51.2885-15/s150x150/e15/10919672_734423479997828_1614848873_n.jpg
p1147
aVhttp://scontent-b.cdninstagram.com/hphotos-xaf1/t51.2885-15/s150x150/e15/10903411_1406473786319453_1562946383_n.jpg
p1148
aVhttp://scontent-a.cdninstagram.com/hphotos-xfa1/t51.2885-15/s150x150/e15/10895228_635036026601289_942890046_n.jpg
p1149
aVhttp://scontent-a.cdninstagram.com/hphotos-xfa1/t51.2885-15/s150x150/e15/10950389_1529420764012162_1116776129_n.jpg
p1150
aVhttp://scontent-a.cdninstagram.com/hphotos-xfa1/t51.2885-15/s150x150/e15/10895213_832398876827496_300727075_n.jpg
p1151
asg124
F-73.981934
sg125
(lp1152
I3
aI6
aI5
aI6
aI8
aI7
aI9
aI6
aI9
aI4
aI5
aI3
aI9
aI11
aI7
aI7
aI3
aI6
aI3
aI12
aI23
aI21
aI35
aI21
aI17
aI15
aI10
aI9
aI7
aI3
aI4
aI5
aI8
aI7
aI3
aI6
aI7
aI9
aI9
aI8
aI7
aI3
aI5
aI9
aI5
aI3
aI1
aI4
aI4
aI1
aI4
aI6
aI6
aI7
aI4
aI5
aI3
aI7
aI2
aI4
aI2
aI3
aI5
aI6
aI9
aI4
aI5
aI6
aI9
aI0
aI3
aI7
aI8
aI5
aI7
aI2
aI5
aI6
aI2
aI2
aI1
aI10
aI5
aI5
aI8
aI7
aI5
aI7
aI5
aI3
asg127
F40.767997
sg128
S'59th Street  Columbus Circle'
p1153
ssg1
(g5
S'\xff\x02\x00\x00\x00\x00\x00\x00'
p1154
tp1155
Rp1156
(dp1157
g12
(lp1158
S'2015-01-25 09:00:00'
p1159
aS'2015-01-25 10:00:00'
p1160
aS'2015-01-25 11:00:00'
p1161
aS'2015-01-25 12:00:00'
p1162
aS'2015-01-25 13:00:00'
p1163
aS'2015-01-25 14:00:00'
p1164
aS'2015-01-25 15:00:00'
p1165
aS'2015-01-25 16:00:00'
p1166
aS'2015-01-25 17:00:00'
p1167
aS'2015-01-25 18:00:00'
p1168
aS'2015-01-25 19:00:00'
p1169
aS'2015-01-25 20:00:00'
p1170
aS'2015-01-25 21:00:00'
p1171
aS'2015-01-25 22:00:00'
p1172
aS'2015-01-25 23:00:00'
p1173
aS'2015-01-26 09:00:00'
p1174
aS'2015-01-26 10:00:00'
p1175
aS'2015-01-26 11:00:00'
p1176
aS'2015-01-26 12:00:00'
p1177
aS'2015-01-26 13:00:00'
p1178
aS'2015-01-26 14:00:00'
p1179
aS'2015-01-26 15:00:00'
p1180
aS'2015-01-26 16:00:00'
p1181
aS'2015-01-26 17:00:00'
p1182
aS'2015-01-26 18:00:00'
p1183
aS'2015-01-26 19:00:00'
p1184
aS'2015-01-26 20:00:00'
p1185
aS'2015-01-26 21:00:00'
p1186
aS'2015-01-26 22:00:00'
p1187
aS'2015-01-26 23:00:00'
p1188
aS'2015-01-27 09:00:00'
p1189
aS'2015-01-27 10:00:00'
p1190
aS'2015-01-27 11:00:00'
p1191
aS'2015-01-27 12:00:00'
p1192
aS'2015-01-27 13:00:00'
p1193
aS'2015-01-27 14:00:00'
p1194
aS'2015-01-27 15:00:00'
p1195
aS'2015-01-27 16:00:00'
p1196
aS'2015-01-27 17:00:00'
p1197
aS'2015-01-27 18:00:00'
p1198
aS'2015-01-27 19:00:00'
p1199
aS'2015-01-27 20:00:00'
p1200
aS'2015-01-27 21:00:00'
p1201
aS'2015-01-27 22:00:00'
p1202
aS'2015-01-27 23:00:00'
p1203
aS'2015-01-29 09:00:00'
p1204
aS'2015-01-29 10:00:00'
p1205
aS'2015-01-29 11:00:00'
p1206
aS'2015-01-29 12:00:00'
p1207
aS'2015-01-29 14:00:00'
p1208
aS'2015-01-29 15:00:00'
p1209
aS'2015-01-29 16:00:00'
p1210
aS'2015-01-29 19:00:00'
p1211
aS'2015-01-28 09:00:00'
p1212
aS'2015-01-28 10:00:00'
p1213
aS'2015-01-28 11:00:00'
p1214
aS'2015-01-28 12:00:00'
p1215
aS'2015-01-28 13:00:00'
p1216
aS'2015-01-28 14:00:00'
p1217
aS'2015-01-28 15:00:00'
p1218
aS'2015-01-28 16:00:00'
p1219
aS'2015-01-28 17:00:00'
p1220
aS'2015-01-28 18:00:00'
p1221
aS'2015-01-28 19:00:00'
p1222
aS'2015-01-28 20:00:00'
p1223
aS'2015-01-28 21:00:00'
p1224
aS'2015-01-28 22:00:00'
p1225
aS'2015-01-28 23:00:00'
p1226
aS'2015-01-29 20:00:00'
p1227
aS'2015-01-29 21:00:00'
p1228
aS'2015-01-29 22:00:00'
p1229
aS'2015-01-29 23:00:00'
p1230
aS'2015-01-30 09:00:00'
p1231
aS'2015-01-30 10:00:00'
p1232
aS'2015-01-30 11:00:00'
p1233
aS'2015-01-30 12:00:00'
p1234
aS'2015-01-30 13:00:00'
p1235
aS'2015-01-30 14:00:00'
p1236
aS'2015-01-30 16:00:00'
p1237
aS'2015-01-30 18:00:00'
p1238
aS'2015-01-30 19:00:00'
p1239
aS'2015-01-30 20:00:00'
p1240
aS'2015-01-30 21:00:00'
p1241
aS'2015-01-30 22:00:00'
p1242
aS'2015-01-30 23:00:00'
p1243
asg102
g103
sg104
(lp1244
Vhttp://scontent-a.cdninstagram.com/hphotos-xpa1/t51.2885-15/s150x150/e15/925589_846107085452879_726417992_n.jpg
p1245
aVhttp://scontent-a.cdninstagram.com/hphotos-xfa1/t51.2885-15/s150x150/e15/10903175_1375945922717495_1304399830_n.jpg
p1246
aVhttp://scontent-a.cdninstagram.com/hphotos-xpa1/t51.2885-15/s150x150/e15/927370_1522083668079800_44160929_n.jpg
p1247
aVhttp://scontent-b.cdninstagram.com/hphotos-xaf1/t51.2885-15/s150x150/e15/10948281_1405260043103401_511299868_n.jpg
p1248
aVhttp://scontent-a.cdninstagram.com/hphotos-xfa1/t51.2885-15/s150x150/e15/10964027_1584139528471159_471442541_n.jpg
p1249
aVhttp://scontent-a.cdninstagram.com/hphotos-xaf1/t51.2885-15/s150x150/e15/10948837_404446673064760_1530939002_n.jpg
p1250
aVhttp://scontent-b.cdninstagram.com/hphotos-xpa1/t51.2885-15/s150x150/e15/1597444_1428487847443178_31144657_n.jpg
p1251
aVhttp://scontent-a.cdninstagram.com/hphotos-xfa1/t51.2885-15/s150x150/e15/10903262_603097506492497_2078525945_n.jpg
p1252
aVhttp://scontent-a.cdninstagram.com/hphotos-xfa1/t51.2885-15/s150x150/e15/10919243_1605242199697403_1534207497_n.jpg
p1253
aVhttp://scontent-b.cdninstagram.com/hphotos-xfa1/t51.2885-15/s150x150/e15/10948718_1549880141962775_972144154_n.jpg
p1254
asg124
F-74.007745693
sg125
(lp1255
I3
aI5
aI10
aI7
aI7
aI7
aI11
aI15
aI15
aI24
aI9
aI14
aI15
aI13
aI8
aI1
aI2
aI2
aI0
aI2
aI4
aI4
aI2
aI2
aI1
aI0
aI4
aI1
aI2
aI1
aI2
aI1
aI0
aI1
aI1
aI1
aI1
aI2
aI1
aI2
aI0
aI0
aI7
aI2
aI2
aI2
aI3
aI3
aI2
aI1
aI2
aI3
aI4
aI1
aI0
aI0
aI1
aI1
aI0
aI1
aI1
aI2
aI4
aI0
aI0
aI4
aI0
aI1
aI3
aI4
aI1
aI3
aI2
aI2
aI1
aI4
aI2
aI4
aI1
aI1
aI1
aI1
aI4
aI1
aI4
asg127
F40.740759914
sg128
S'The Standard High Line'
p1256
ss.