(dp0
cnumpy.core.multiarray
scalar
p1
(cnumpy
dtype
p2
(S'i8'
p3
I0
I1
tp4
Rp5
(I3
S'<'
p6
NNNI-1
I-1
I0
tp7
bS'0\xc6\x1f\x00\x00\x00\x00\x00'
p8
tp9
Rp10
(dp11
S't_h'
p12
(lp13
S'2015-01-23 09:00:00'
p14
aS'2015-01-23 10:00:00'
p15
aS'2015-01-23 11:00:00'
p16
aS'2015-01-23 12:00:00'
p17
aS'2015-01-23 13:00:00'
p18
aS'2015-01-23 14:00:00'
p19
aS'2015-01-23 15:00:00'
p20
aS'2015-01-23 16:00:00'
p21
aS'2015-01-23 17:00:00'
p22
aS'2015-01-23 18:00:00'
p23
aS'2015-01-23 19:00:00'
p24
aS'2015-01-23 20:00:00'
p25
aS'2015-01-23 21:00:00'
p26
aS'2015-01-23 22:00:00'
p27
aS'2015-01-23 23:00:00'
p28
aS'2015-01-24 09:00:00'
p29
aS'2015-01-24 10:00:00'
p30
aS'2015-01-24 11:00:00'
p31
aS'2015-01-24 12:00:00'
p32
aS'2015-01-24 13:00:00'
p33
aS'2015-01-24 14:00:00'
p34
aS'2015-01-24 15:00:00'
p35
aS'2015-01-24 16:00:00'
p36
aS'2015-01-24 17:00:00'
p37
aS'2015-01-24 18:00:00'
p38
aS'2015-01-24 19:00:00'
p39
aS'2015-01-24 20:00:00'
p40
aS'2015-01-24 21:00:00'
p41
aS'2015-01-24 22:00:00'
p42
aS'2015-01-24 23:00:00'
p43
aS'2015-01-25 09:00:00'
p44
aS'2015-01-25 10:00:00'
p45
aS'2015-01-25 11:00:00'
p46
aS'2015-01-25 12:00:00'
p47
aS'2015-01-25 13:00:00'
p48
aS'2015-01-25 14:00:00'
p49
aS'2015-01-25 15:00:00'
p50
aS'2015-01-25 16:00:00'
p51
aS'2015-01-25 17:00:00'
p52
aS'2015-01-25 18:00:00'
p53
aS'2015-01-25 19:00:00'
p54
aS'2015-01-25 20:00:00'
p55
aS'2015-01-25 21:00:00'
p56
aS'2015-01-25 22:00:00'
p57
aS'2015-01-25 23:00:00'
p58
aS'2015-01-26 09:00:00'
p59
aS'2015-01-26 10:00:00'
p60
aS'2015-01-26 11:00:00'
p61
aS'2015-01-26 12:00:00'
p62
aS'2015-01-26 13:00:00'
p63
aS'2015-01-26 14:00:00'
p64
aS'2015-01-26 15:00:00'
p65
aS'2015-01-26 16:00:00'
p66
aS'2015-01-26 17:00:00'
p67
aS'2015-01-26 18:00:00'
p68
aS'2015-01-26 19:00:00'
p69
aS'2015-01-26 20:00:00'
p70
aS'2015-01-26 21:00:00'
p71
aS'2015-01-26 22:00:00'
p72
aS'2015-01-26 23:00:00'
p73
aS'2015-01-27 09:00:00'
p74
aS'2015-01-27 10:00:00'
p75
aS'2015-01-27 11:00:00'
p76
aS'2015-01-27 12:00:00'
p77
aS'2015-01-27 13:00:00'
p78
aS'2015-01-27 14:00:00'
p79
aS'2015-01-27 15:00:00'
p80
aS'2015-01-27 16:00:00'
p81
aS'2015-01-27 17:00:00'
p82
aS'2015-01-27 18:00:00'
p83
aS'2015-01-27 19:00:00'
p84
aS'2015-01-27 20:00:00'
p85
aS'2015-01-27 21:00:00'
p86
aS'2015-01-27 22:00:00'
p87
aS'2015-01-27 23:00:00'
p88
aS'2015-01-28 09:00:00'
p89
aS'2015-01-28 10:00:00'
p90
aS'2015-01-28 11:00:00'
p91
aS'2015-01-28 12:00:00'
p92
aS'2015-01-28 13:00:00'
p93
aS'2015-01-28 14:00:00'
p94
aS'2015-01-28 15:00:00'
p95
aS'2015-01-28 16:00:00'
p96
aS'2015-01-28 17:00:00'
p97
aS'2015-01-28 18:00:00'
p98
aS'2015-01-28 19:00:00'
p99
aS'2015-01-28 20:00:00'
p100
aS'2015-01-28 21:00:00'
p101
aS'2015-01-28 22:00:00'
p102
aS'2015-01-28 23:00:00'
p103
asS'event_type'
p104
S'Anomaly'
p105
sS'url'
p106
(lp107
Vhttp://scontent-b.cdninstagram.com/hphotos-xaf1/t51.2885-15/s150x150/e15/10958679_792924364118753_876661903_n.jpg
p108
aVhttp://scontent-a.cdninstagram.com/hphotos-xaf1/t51.2885-15/s150x150/e15/10914606_1559041191004600_120863976_n.jpg
p109
aVhttp://scontent-b.cdninstagram.com/hphotos-xpa1/t51.2885-15/s150x150/e15/924662_1605220373034811_702337957_n.jpg
p110
aVhttp://scontent-b.cdninstagram.com/hphotos-xfa1/t51.2885-15/s150x150/e15/10948238_1580641435514498_830916934_n.jpg
p111
aVhttp://scontent-a.cdninstagram.com/hphotos-xaf1/t51.2885-15/s150x150/e15/10950288_583785768419418_127413030_n.jpg
p112
aVhttp://scontent-b.cdninstagram.com/hphotos-xfa1/t51.2885-15/s150x150/e15/10948850_866820350027363_1547588348_n.jpg
p113
aVhttp://scontent-b.cdninstagram.com/hphotos-xaf1/t51.2885-15/s150x150/e15/10895502_1384572321852583_1584387269_n.jpg
p114
aVhttp://scontent-b.cdninstagram.com/hphotos-xaf1/t51.2885-15/s150x150/e15/10948863_1538830746365561_1105237092_n.jpg
p115
aVhttp://scontent-a.cdninstagram.com/hphotos-xfa1/t51.2885-15/s150x150/e15/10932566_341103289413538_906319167_n.jpg
p116
aVhttp://scontent-b.cdninstagram.com/hphotos-xaf1/t51.2885-15/s150x150/e15/10948984_916699295030827_244941087_n.jpg
p117
aVhttp://scontent-a.cdninstagram.com/hphotos-xaf1/t51.2885-15/s150x150/e15/10903218_763535677047894_443341200_n.jpg
p118
aVhttp://scontent-b.cdninstagram.com/hphotos-xaf1/t51.2885-15/s150x150/e15/10865199_716280418487895_198646134_n.jpg
p119
aVhttp://scontent-b.cdninstagram.com/hphotos-xaf1/t51.2885-15/s150x150/e15/914493_338622606344449_1016236757_n.jpg
p120
aVhttp://scontent-a.cdninstagram.com/hphotos-xaf1/t51.2885-15/s150x150/e15/10948824_1709436979282614_1984825170_n.jpg
p121
aVhttp://scontent-a.cdninstagram.com/hphotos-xfa1/t51.2885-15/s150x150/e15/10950482_607965009335751_1810281483_n.jpg
p122
aVhttp://scontent-a.cdninstagram.com/hphotos-xaf1/t51.2885-15/s150x150/e15/10932139_853100284805050_815100187_n.jpg
p123
aVhttp://scontent-b.cdninstagram.com/hphotos-xaf1/t51.2885-15/s150x150/e15/10946589_762967873796543_1158020409_n.jpg
p124
aVhttp://scontent-a.cdninstagram.com/hphotos-xaf1/t51.2885-15/s150x150/e15/10919580_753146454764854_1659021877_n.jpg
p125
asS'lon'
p126
F-73.992785274
sS'x_h'
p127
(lp128
I24
aI22
aI11
aI14
aI15
aI11
aI17
aI11
aI13
aI26
aI157
aI165
aI95
aI51
aI45
aI14
aI10
aI11
aI12
aI8
aI11
aI4
aI12
aI11
aI12
aI33
aI71
aI23
aI81
aI34
aI2
aI10
aI15
aI13
aI63
aI102
aI46
aI141
aI74
aI31
aI26
aI16
aI8
aI13
aI11
aI4
aI4
aI7
aI9
aI9
aI13
aI17
aI10
aI11
aI8
aI8
aI3
aI2
aI6
aI2
aI8
aI5
aI1
aI2
aI1
aI6
aI6
aI5
aI6
aI6
aI6
aI3
aI1
aI1
aI2
aI2
aI4
aI1
aI3
aI2
aI2
aI6
aI2
aI5
aI13
aI54
aI111
aI103
aI0
aI27
asS'lat'
p129
F40.750526876
sS'name'
p130
S'Madison Square Garden'
p131
ssg1
(g5
S'\xb8\x8d\x99\x0c\x00\x00\x00\x00'
p132
tp133
Rp134
(dp135
g12
(lp136
S'2015-01-23 09:00:00'
p137
aS'2015-01-23 10:00:00'
p138
aS'2015-01-23 11:00:00'
p139
aS'2015-01-23 12:00:00'
p140
aS'2015-01-23 13:00:00'
p141
aS'2015-01-23 14:00:00'
p142
aS'2015-01-23 15:00:00'
p143
aS'2015-01-23 16:00:00'
p144
aS'2015-01-23 17:00:00'
p145
aS'2015-01-23 18:00:00'
p146
aS'2015-01-23 19:00:00'
p147
aS'2015-01-23 20:00:00'
p148
aS'2015-01-23 21:00:00'
p149
aS'2015-01-23 22:00:00'
p150
aS'2015-01-23 23:00:00'
p151
aS'2015-01-24 09:00:00'
p152
aS'2015-01-24 10:00:00'
p153
aS'2015-01-24 11:00:00'
p154
aS'2015-01-24 12:00:00'
p155
aS'2015-01-24 13:00:00'
p156
aS'2015-01-24 14:00:00'
p157
aS'2015-01-24 15:00:00'
p158
aS'2015-01-24 16:00:00'
p159
aS'2015-01-24 17:00:00'
p160
aS'2015-01-24 18:00:00'
p161
aS'2015-01-24 19:00:00'
p162
aS'2015-01-24 20:00:00'
p163
aS'2015-01-24 21:00:00'
p164
aS'2015-01-24 22:00:00'
p165
aS'2015-01-24 23:00:00'
p166
aS'2015-01-25 09:00:00'
p167
aS'2015-01-25 10:00:00'
p168
aS'2015-01-25 11:00:00'
p169
aS'2015-01-25 12:00:00'
p170
aS'2015-01-25 13:00:00'
p171
aS'2015-01-25 14:00:00'
p172
aS'2015-01-25 15:00:00'
p173
aS'2015-01-25 16:00:00'
p174
aS'2015-01-25 17:00:00'
p175
aS'2015-01-25 18:00:00'
p176
aS'2015-01-25 19:00:00'
p177
aS'2015-01-25 20:00:00'
p178
aS'2015-01-25 21:00:00'
p179
aS'2015-01-25 22:00:00'
p180
aS'2015-01-25 23:00:00'
p181
aS'2015-01-26 09:00:00'
p182
aS'2015-01-26 10:00:00'
p183
aS'2015-01-26 11:00:00'
p184
aS'2015-01-26 12:00:00'
p185
aS'2015-01-26 13:00:00'
p186
aS'2015-01-26 14:00:00'
p187
aS'2015-01-26 15:00:00'
p188
aS'2015-01-26 16:00:00'
p189
aS'2015-01-26 17:00:00'
p190
aS'2015-01-26 18:00:00'
p191
aS'2015-01-26 19:00:00'
p192
aS'2015-01-26 20:00:00'
p193
aS'2015-01-26 21:00:00'
p194
aS'2015-01-26 22:00:00'
p195
aS'2015-01-26 23:00:00'
p196
aS'2015-01-27 09:00:00'
p197
aS'2015-01-27 10:00:00'
p198
aS'2015-01-27 11:00:00'
p199
aS'2015-01-27 12:00:00'
p200
aS'2015-01-27 13:00:00'
p201
aS'2015-01-27 14:00:00'
p202
aS'2015-01-27 15:00:00'
p203
aS'2015-01-27 16:00:00'
p204
aS'2015-01-27 17:00:00'
p205
aS'2015-01-27 18:00:00'
p206
aS'2015-01-27 19:00:00'
p207
aS'2015-01-27 20:00:00'
p208
aS'2015-01-27 21:00:00'
p209
aS'2015-01-27 22:00:00'
p210
aS'2015-01-27 23:00:00'
p211
aS'2015-01-28 09:00:00'
p212
aS'2015-01-28 10:00:00'
p213
aS'2015-01-28 11:00:00'
p214
aS'2015-01-28 12:00:00'
p215
aS'2015-01-28 13:00:00'
p216
aS'2015-01-28 14:00:00'
p217
aS'2015-01-28 15:00:00'
p218
aS'2015-01-28 16:00:00'
p219
aS'2015-01-28 17:00:00'
p220
aS'2015-01-28 18:00:00'
p221
aS'2015-01-28 19:00:00'
p222
aS'2015-01-28 20:00:00'
p223
aS'2015-01-28 21:00:00'
p224
aS'2015-01-28 22:00:00'
p225
aS'2015-01-28 23:00:00'
p226
asg104
g105
sg106
(lp227
Vhttp://scontent-b.cdninstagram.com/hphotos-xaf1/t51.2885-15/s150x150/e15/10932273_403420989827803_2067486649_n.jpg
p228
aVhttp://scontent-b.cdninstagram.com/hphotos-xap1/t51.2885-15/s150x150/e15/10787844_1409895709307698_947192673_n.jpg
p229
aVhttp://scontent-b.cdninstagram.com/hphotos-xaf1/t51.2885-15/s150x150/e15/10958488_1536318836643795_1435539906_n.jpg
p230
aVhttp://scontent-a.cdninstagram.com/hphotos-xaf1/t51.2885-15/s150x150/e15/10932154_686391221480577_728944168_n.jpg
p231
aVhttp://scontent-a.cdninstagram.com/hphotos-xaf1/t51.2885-15/s150x150/e15/10895308_836840073029495_673850088_n.jpg
p232
aVhttp://scontent-b.cdninstagram.com/hphotos-xaf1/t51.2885-15/s150x150/e15/10919365_766084310127870_1653377639_n.jpg
p233
aVhttp://scontent-a.cdninstagram.com/hphotos-xaf1/t51.2885-15/s150x150/e15/10914681_762956327121274_1485507066_n.jpg
p234
aVhttp://scontent-a.cdninstagram.com/hphotos-xfa1/t51.2885-15/s150x150/e15/10932482_1565476243694326_1869781339_n.jpg
p235
aVhttp://scontent-a.cdninstagram.com/hphotos-xfa1/t51.2885-15/s150x150/e15/10958405_445385138943552_1978774442_n.jpg
p236
aVhttp://scontent-b.cdninstagram.com/hphotos-xaf1/t51.2885-15/s150x150/e15/10932192_1390285874612723_1852965677_n.jpg
p237
aVhttp://scontent-b.cdninstagram.com/hphotos-xaf1/t51.2885-15/s150x150/e15/10950469_1532118443707925_1339171034_n.jpg
p238
aVhttp://scontent-a.cdninstagram.com/hphotos-xaf1/t51.2885-15/s150x150/e15/10957374_394714224044919_770992179_n.jpg
p239
aVhttp://scontent-a.cdninstagram.com/hphotos-xaf1/t51.2885-15/s150x150/e15/10914561_418355731661928_1006719838_n.jpg
p240
aVhttp://scontent-b.cdninstagram.com/hphotos-xaf1/t51.2885-15/s150x150/e15/10932640_565312193604932_1865716457_n.jpg
p241
aVhttp://scontent-b.cdninstagram.com/hphotos-xaf1/t51.2885-15/s150x150/e15/10932364_387598451401382_891756606_n.jpg
p242
aVhttp://scontent-b.cdninstagram.com/hphotos-xaf1/t51.2885-15/s150x150/e15/10953576_436651443166136_139966818_n.jpg
p243
aVhttp://scontent-b.cdninstagram.com/hphotos-xfa1/t51.2885-15/s150x150/e15/914504_1604097956480020_1957778953_n.jpg
p244
aVhttp://scontent-b.cdninstagram.com/hphotos-xfa1/t51.2885-15/s150x150/e15/10954082_1038080226219699_1345579088_n.jpg
p245
asg126
F-73.99275
sg127
(lp246
I0
aI0
aI0
aI0
aI0
aI0
aI0
aI0
aI2
aI0
aI2
aI3
aI16
aI33
aI67
aI3
aI11
aI8
aI9
aI1
aI3
aI3
aI3
aI3
aI3
aI0
aI2
aI3
aI1
aI2
aI0
aI2
aI3
aI3
aI6
aI2
aI2
aI3
aI2
aI1
aI1
aI0
aI0
aI1
aI2
aI0
aI1
aI1
aI0
aI0
aI0
aI0
aI0
aI1
aI3
aI0
aI0
aI0
aI0
aI1
aI1
aI4
aI1
aI0
aI0
aI0
aI0
aI0
aI0
aI0
aI0
aI0
aI0
aI0
aI1
aI0
aI0
aI0
aI0
aI0
aI0
aI0
aI0
aI0
aI0
aI2
aI5
aI24
aI0
aI19
asg129
F40.76965
sg130
S'Terminal 5'
p247
ssg1
(g5
S'\xea\x02\x00\x00\x00\x00\x00\x00'
p248
tp249
Rp250
(dp251
g12
(lp252
S'2015-01-23 09:00:00'
p253
aS'2015-01-23 10:00:00'
p254
aS'2015-01-23 11:00:00'
p255
aS'2015-01-23 12:00:00'
p256
aS'2015-01-23 13:00:00'
p257
aS'2015-01-23 14:00:00'
p258
aS'2015-01-23 15:00:00'
p259
aS'2015-01-23 16:00:00'
p260
aS'2015-01-23 17:00:00'
p261
aS'2015-01-23 18:00:00'
p262
aS'2015-01-23 19:00:00'
p263
aS'2015-01-23 20:00:00'
p264
aS'2015-01-23 21:00:00'
p265
aS'2015-01-23 22:00:00'
p266
aS'2015-01-23 23:00:00'
p267
aS'2015-01-24 09:00:00'
p268
aS'2015-01-24 10:00:00'
p269
aS'2015-01-24 11:00:00'
p270
aS'2015-01-24 12:00:00'
p271
aS'2015-01-24 13:00:00'
p272
aS'2015-01-24 14:00:00'
p273
aS'2015-01-24 15:00:00'
p274
aS'2015-01-24 16:00:00'
p275
aS'2015-01-24 17:00:00'
p276
aS'2015-01-24 18:00:00'
p277
aS'2015-01-24 19:00:00'
p278
aS'2015-01-24 20:00:00'
p279
aS'2015-01-24 21:00:00'
p280
aS'2015-01-24 22:00:00'
p281
aS'2015-01-24 23:00:00'
p282
aS'2015-01-25 09:00:00'
p283
aS'2015-01-25 10:00:00'
p284
aS'2015-01-25 11:00:00'
p285
aS'2015-01-25 12:00:00'
p286
aS'2015-01-25 13:00:00'
p287
aS'2015-01-25 14:00:00'
p288
aS'2015-01-25 15:00:00'
p289
aS'2015-01-25 16:00:00'
p290
aS'2015-01-25 17:00:00'
p291
aS'2015-01-25 18:00:00'
p292
aS'2015-01-25 19:00:00'
p293
aS'2015-01-25 20:00:00'
p294
aS'2015-01-25 21:00:00'
p295
aS'2015-01-25 22:00:00'
p296
aS'2015-01-25 23:00:00'
p297
aS'2015-01-26 09:00:00'
p298
aS'2015-01-26 10:00:00'
p299
aS'2015-01-26 11:00:00'
p300
aS'2015-01-26 12:00:00'
p301
aS'2015-01-26 13:00:00'
p302
aS'2015-01-26 14:00:00'
p303
aS'2015-01-26 15:00:00'
p304
aS'2015-01-26 16:00:00'
p305
aS'2015-01-26 17:00:00'
p306
aS'2015-01-26 18:00:00'
p307
aS'2015-01-26 19:00:00'
p308
aS'2015-01-26 20:00:00'
p309
aS'2015-01-26 21:00:00'
p310
aS'2015-01-26 22:00:00'
p311
aS'2015-01-26 23:00:00'
p312
aS'2015-01-27 09:00:00'
p313
aS'2015-01-27 10:00:00'
p314
aS'2015-01-27 11:00:00'
p315
aS'2015-01-27 12:00:00'
p316
aS'2015-01-27 13:00:00'
p317
aS'2015-01-27 14:00:00'
p318
aS'2015-01-27 15:00:00'
p319
aS'2015-01-27 16:00:00'
p320
aS'2015-01-27 17:00:00'
p321
aS'2015-01-27 18:00:00'
p322
aS'2015-01-27 19:00:00'
p323
aS'2015-01-27 20:00:00'
p324
aS'2015-01-27 21:00:00'
p325
aS'2015-01-27 22:00:00'
p326
aS'2015-01-27 23:00:00'
p327
aS'2015-01-28 09:00:00'
p328
aS'2015-01-28 10:00:00'
p329
aS'2015-01-28 11:00:00'
p330
aS'2015-01-28 12:00:00'
p331
aS'2015-01-28 13:00:00'
p332
aS'2015-01-28 14:00:00'
p333
aS'2015-01-28 15:00:00'
p334
aS'2015-01-28 16:00:00'
p335
aS'2015-01-28 17:00:00'
p336
aS'2015-01-28 18:00:00'
p337
aS'2015-01-28 19:00:00'
p338
aS'2015-01-28 20:00:00'
p339
aS'2015-01-28 21:00:00'
p340
aS'2015-01-28 22:00:00'
p341
aS'2015-01-28 23:00:00'
p342
asg104
g105
sg106
(lp343
Vhttp://scontent-a.cdninstagram.com/hphotos-xfa1/t51.2885-15/s150x150/e15/10932086_918293711528136_1197075758_n.jpg
p344
aVhttp://scontent-a.cdninstagram.com/hphotos-xaf1/t51.2885-15/s150x150/e15/10958119_758406340895371_1117980948_n.jpg
p345
aVhttp://scontent-b.cdninstagram.com/hphotos-xaf1/t51.2885-15/s150x150/e15/10895320_1073986029293825_412295145_n.jpg
p346
aVhttp://scontent-b.cdninstagram.com/hphotos-xfa1/t51.2885-15/s150x150/e15/10914677_335946736592288_1963104187_n.jpg
p347
aVhttp://scontent-b.cdninstagram.com/hphotos-xaf1/t51.2885-15/s150x150/e15/10932196_788491951238773_604246393_n.jpg
p348
aVhttp://scontent-b.cdninstagram.com/hphotos-xaf1/t51.2885-15/s150x150/e15/10949001_1776067302617438_539402645_n.jpg
p349
aVhttp://scontent-a.cdninstagram.com/hphotos-xap1/t51.2885-15/s150x150/e15/10611265_340913422782356_114756022_n.jpg
p350
aVhttp://scontent-b.cdninstagram.com/hphotos-xaf1/t51.2885-15/s150x150/e15/10953337_1592588614309547_411336183_n.jpg
p351
aVhttp://scontent-a.cdninstagram.com/hphotos-xaf1/t51.2885-15/s150x150/e15/10957314_331350030400499_1892706045_n.jpg
p352
aVhttp://scontent-b.cdninstagram.com/hphotos-xfa1/t51.2885-15/s150x150/e15/10895453_404067759768689_523165472_n.jpg
p353
asg126
F-73.984275416
sg127
(lp354
I0
aI0
aI3
aI1
aI2
aI1
aI3
aI3
aI0
aI3
aI2
aI1
aI3
aI4
aI6
aI2
aI2
aI0
aI0
aI4
aI3
aI3
aI2
aI3
aI3
aI6
aI0
aI6
aI1
aI2
aI0
aI0
aI1
aI2
aI2
aI1
aI1
aI2
aI2
aI6
aI2
aI7
aI3
aI2
aI1
aI1
aI1
aI0
aI2
aI2
aI0
aI0
aI1
aI1
aI0
aI0
aI0
aI4
aI0
aI0
aI0
aI0
aI0
aI0
aI1
aI4
aI4
aI1
aI4
aI5
aI4
aI4
aI3
aI2
aI1
aI0
aI1
aI0
aI0
aI3
aI1
aI1
aI1
aI1
aI1
aI0
aI3
aI7
aI0
aI1
asg129
F40.729098884
sg130
S'Momofuku Noodle Bar'
p355
ssg1
(g5
S'\x7f\x02\x04\x00\x00\x00\x00\x00'
p356
tp357
Rp358
(dp359
g12
(lp360
S'2015-01-23 09:00:00'
p361
aS'2015-01-23 10:00:00'
p362
aS'2015-01-23 11:00:00'
p363
aS'2015-01-23 12:00:00'
p364
aS'2015-01-23 13:00:00'
p365
aS'2015-01-23 14:00:00'
p366
aS'2015-01-23 15:00:00'
p367
aS'2015-01-23 16:00:00'
p368
aS'2015-01-23 17:00:00'
p369
aS'2015-01-23 18:00:00'
p370
aS'2015-01-23 19:00:00'
p371
aS'2015-01-23 20:00:00'
p372
aS'2015-01-23 21:00:00'
p373
aS'2015-01-23 22:00:00'
p374
aS'2015-01-23 23:00:00'
p375
aS'2015-01-24 09:00:00'
p376
aS'2015-01-24 10:00:00'
p377
aS'2015-01-24 11:00:00'
p378
aS'2015-01-24 12:00:00'
p379
aS'2015-01-24 13:00:00'
p380
aS'2015-01-24 14:00:00'
p381
aS'2015-01-24 15:00:00'
p382
aS'2015-01-24 16:00:00'
p383
aS'2015-01-24 17:00:00'
p384
aS'2015-01-24 18:00:00'
p385
aS'2015-01-24 19:00:00'
p386
aS'2015-01-24 20:00:00'
p387
aS'2015-01-24 21:00:00'
p388
aS'2015-01-24 22:00:00'
p389
aS'2015-01-24 23:00:00'
p390
aS'2015-01-25 09:00:00'
p391
aS'2015-01-25 10:00:00'
p392
aS'2015-01-25 11:00:00'
p393
aS'2015-01-25 12:00:00'
p394
aS'2015-01-25 13:00:00'
p395
aS'2015-01-25 14:00:00'
p396
aS'2015-01-25 15:00:00'
p397
aS'2015-01-25 16:00:00'
p398
aS'2015-01-25 17:00:00'
p399
aS'2015-01-25 18:00:00'
p400
aS'2015-01-25 19:00:00'
p401
aS'2015-01-25 20:00:00'
p402
aS'2015-01-25 21:00:00'
p403
aS'2015-01-25 22:00:00'
p404
aS'2015-01-25 23:00:00'
p405
aS'2015-01-26 09:00:00'
p406
aS'2015-01-26 10:00:00'
p407
aS'2015-01-26 11:00:00'
p408
aS'2015-01-26 12:00:00'
p409
aS'2015-01-26 13:00:00'
p410
aS'2015-01-26 14:00:00'
p411
aS'2015-01-26 15:00:00'
p412
aS'2015-01-26 16:00:00'
p413
aS'2015-01-26 17:00:00'
p414
aS'2015-01-26 18:00:00'
p415
aS'2015-01-26 19:00:00'
p416
aS'2015-01-26 20:00:00'
p417
aS'2015-01-26 21:00:00'
p418
aS'2015-01-26 22:00:00'
p419
aS'2015-01-26 23:00:00'
p420
aS'2015-01-27 09:00:00'
p421
aS'2015-01-27 10:00:00'
p422
aS'2015-01-27 11:00:00'
p423
aS'2015-01-27 12:00:00'
p424
aS'2015-01-27 13:00:00'
p425
aS'2015-01-27 14:00:00'
p426
aS'2015-01-27 15:00:00'
p427
aS'2015-01-27 16:00:00'
p428
aS'2015-01-27 17:00:00'
p429
aS'2015-01-27 18:00:00'
p430
aS'2015-01-27 19:00:00'
p431
aS'2015-01-27 20:00:00'
p432
aS'2015-01-27 21:00:00'
p433
aS'2015-01-27 22:00:00'
p434
aS'2015-01-27 23:00:00'
p435
aS'2015-01-28 09:00:00'
p436
aS'2015-01-28 10:00:00'
p437
aS'2015-01-28 11:00:00'
p438
aS'2015-01-28 12:00:00'
p439
aS'2015-01-28 13:00:00'
p440
aS'2015-01-28 14:00:00'
p441
aS'2015-01-28 15:00:00'
p442
aS'2015-01-28 16:00:00'
p443
aS'2015-01-28 17:00:00'
p444
aS'2015-01-28 18:00:00'
p445
aS'2015-01-28 19:00:00'
p446
aS'2015-01-28 20:00:00'
p447
aS'2015-01-28 21:00:00'
p448
aS'2015-01-28 22:00:00'
p449
aS'2015-01-28 23:00:00'
p450
asg104
g105
sg106
(lp451
Vhttp://scontent-b.cdninstagram.com/hphotos-xfa1/t51.2885-15/s150x150/e15/10914611_942451399113255_775073060_n.jpg
p452
aVhttp://scontent-b.cdninstagram.com/hphotos-xfa1/t51.2885-15/s150x150/e15/10946615_315356568674167_979419951_n.jpg
p453
aVhttp://scontent-a.cdninstagram.com/hphotos-xaf1/t51.2885-15/s150x150/e15/10919550_450793708404797_494734922_n.jpg
p454
aVhttp://scontent-b.cdninstagram.com/hphotos-xaf1/t51.2885-15/s150x150/e15/10948846_1430922707198369_1459739347_n.jpg
p455
aVhttp://scontent-a.cdninstagram.com/hphotos-xaf1/t51.2885-15/s150x150/e15/10914165_1596382657257935_1779032798_n.jpg
p456
aVhttp://scontent-a.cdninstagram.com/hphotos-xpa1/t51.2885-15/s150x150/e15/924046_1398644927105332_1126020053_n.jpg
p457
aVhttp://scontent-a.cdninstagram.com/hphotos-xaf1/t51.2885-15/s150x150/e15/10957242_1579125848972146_382858572_n.jpg
p458
aVhttp://scontent-b.cdninstagram.com/hphotos-xaf1/t51.2885-15/s150x150/e15/10919766_416271458539216_2086470166_n.jpg
p459
aVhttp://scontent-b.cdninstagram.com/hphotos-xaf1/t51.2885-15/s150x150/e15/10948350_930568140307503_1429343520_n.jpg
p460
aVhttp://scontent-a.cdninstagram.com/hphotos-xaf1/t51.2885-15/s150x150/e15/10949044_799068720171094_2138027180_n.jpg
p461
aVhttp://scontent-b.cdninstagram.com/hphotos-xaf1/t51.2885-15/s150x150/e15/10958181_1023773014303556_2032545290_n.jpg
p462
aVhttp://scontent-b.cdninstagram.com/hphotos-xaf1/t51.2885-15/s150x150/e15/10914174_879978252064128_1949184644_n.jpg
p463
aVhttp://scontent-a.cdninstagram.com/hphotos-xfa1/t51.2885-15/s150x150/e15/10948778_814198318650413_1157666655_n.jpg
p464
aVhttp://scontent-b.cdninstagram.com/hphotos-xaf1/t51.2885-15/s150x150/e15/10948653_423042774519596_1504755277_n.jpg
p465
aVhttp://scontent-a.cdninstagram.com/hphotos-xaf1/t51.2885-15/s150x150/e15/10860024_853833481322321_2030545796_n.jpg
p466
aVhttp://scontent-b.cdninstagram.com/hphotos-xpa1/t51.2885-15/s150x150/e15/924038_1586222861594149_1622028065_n.jpg
p467
aVhttp://scontent-b.cdninstagram.com/hphotos-xpf1/t51.2885-15/s150x150/e15/10549769_604810906317727_1602979833_n.jpg
p468
aVhttp://scontent-b.cdninstagram.com/hphotos-xaf1/t51.2885-15/s150x150/e15/10948497_789055241176323_413761178_n.jpg
p469
asg126
F-73.988436529
sg127
(lp470
I0
aI2
aI2
aI1
aI0
aI4
aI2
aI1
aI2
aI5
aI3
aI11
aI7
aI9
aI5
aI1
aI6
aI1
aI9
aI10
aI6
aI13
aI8
aI0
aI2
aI1
aI0
aI0
aI0
aI0
aI0
aI0
aI0
aI1
aI0
aI3
aI1
aI1
aI0
aI0
aI0
aI0
aI0
aI0
aI0
aI0
aI0
aI1
aI0
aI0
aI0
aI0
aI0
aI0
aI0
aI1
aI0
aI0
aI1
aI0
aI1
aI1
aI0
aI0
aI0
aI0
aI0
aI0
aI0
aI0
aI0
aI0
aI0
aI0
aI0
aI0
aI1
aI1
aI0
aI1
aI1
aI0
aI1
aI2
aI1
aI3
aI2
aI11
aI0
aI13
asg129
F40.734830862
sg130
S'Irving Plaza'
p471
ss.