(dp0
cnumpy.core.multiarray
scalar
p1
(cnumpy
dtype
p2
(S'i8'
p3
I0
I1
tp4
Rp5
(I3
S'<'
p6
NNNI-1
I-1
I0
tp7
bS'\xa0\t\xb2\x0c\x00\x00\x00\x00'
p8
tp9
Rp10
(dp11
S't_h'
p12
(lp13
S'2015-01-22 09:00:00'
p14
aS'2015-01-22 10:00:00'
p15
aS'2015-01-22 11:00:00'
p16
aS'2015-01-22 12:00:00'
p17
aS'2015-01-22 13:00:00'
p18
aS'2015-01-22 14:00:00'
p19
aS'2015-01-22 15:00:00'
p20
aS'2015-01-22 16:00:00'
p21
aS'2015-01-22 17:00:00'
p22
aS'2015-01-22 18:00:00'
p23
aS'2015-01-22 19:00:00'
p24
aS'2015-01-22 20:00:00'
p25
aS'2015-01-22 21:00:00'
p26
aS'2015-01-22 22:00:00'
p27
aS'2015-01-22 23:00:00'
p28
aS'2015-01-23 09:00:00'
p29
aS'2015-01-23 10:00:00'
p30
aS'2015-01-23 11:00:00'
p31
aS'2015-01-23 12:00:00'
p32
aS'2015-01-23 13:00:00'
p33
aS'2015-01-23 14:00:00'
p34
aS'2015-01-23 15:00:00'
p35
aS'2015-01-23 16:00:00'
p36
aS'2015-01-23 17:00:00'
p37
aS'2015-01-23 18:00:00'
p38
aS'2015-01-23 19:00:00'
p39
aS'2015-01-23 20:00:00'
p40
aS'2015-01-23 21:00:00'
p41
aS'2015-01-23 22:00:00'
p42
aS'2015-01-23 23:00:00'
p43
aS'2015-01-24 09:00:00'
p44
aS'2015-01-24 10:00:00'
p45
aS'2015-01-24 11:00:00'
p46
aS'2015-01-24 12:00:00'
p47
aS'2015-01-24 13:00:00'
p48
aS'2015-01-24 14:00:00'
p49
aS'2015-01-24 15:00:00'
p50
aS'2015-01-24 16:00:00'
p51
aS'2015-01-24 17:00:00'
p52
aS'2015-01-24 18:00:00'
p53
aS'2015-01-24 19:00:00'
p54
aS'2015-01-24 20:00:00'
p55
aS'2015-01-24 21:00:00'
p56
aS'2015-01-24 22:00:00'
p57
aS'2015-01-24 23:00:00'
p58
aS'2015-01-25 09:00:00'
p59
aS'2015-01-25 10:00:00'
p60
aS'2015-01-25 11:00:00'
p61
aS'2015-01-25 12:00:00'
p62
aS'2015-01-25 13:00:00'
p63
aS'2015-01-25 14:00:00'
p64
aS'2015-01-25 15:00:00'
p65
aS'2015-01-25 16:00:00'
p66
aS'2015-01-25 17:00:00'
p67
aS'2015-01-25 18:00:00'
p68
aS'2015-01-25 19:00:00'
p69
aS'2015-01-25 20:00:00'
p70
aS'2015-01-25 21:00:00'
p71
aS'2015-01-25 22:00:00'
p72
aS'2015-01-25 23:00:00'
p73
aS'2015-01-26 09:00:00'
p74
aS'2015-01-26 10:00:00'
p75
aS'2015-01-26 11:00:00'
p76
aS'2015-01-26 12:00:00'
p77
aS'2015-01-26 13:00:00'
p78
aS'2015-01-26 14:00:00'
p79
aS'2015-01-26 15:00:00'
p80
aS'2015-01-26 16:00:00'
p81
aS'2015-01-26 17:00:00'
p82
aS'2015-01-26 18:00:00'
p83
aS'2015-01-26 19:00:00'
p84
aS'2015-01-26 20:00:00'
p85
aS'2015-01-26 21:00:00'
p86
aS'2015-01-26 22:00:00'
p87
aS'2015-01-26 23:00:00'
p88
aS'2015-01-27 09:00:00'
p89
aS'2015-01-27 10:00:00'
p90
aS'2015-01-27 11:00:00'
p91
aS'2015-01-27 12:00:00'
p92
aS'2015-01-27 13:00:00'
p93
aS'2015-01-27 14:00:00'
p94
aS'2015-01-27 15:00:00'
p95
aS'2015-01-27 16:00:00'
p96
aS'2015-01-27 17:00:00'
p97
aS'2015-01-27 18:00:00'
p98
aS'2015-01-27 19:00:00'
p99
aS'2015-01-27 20:00:00'
p100
aS'2015-01-27 21:00:00'
p101
aS'2015-01-27 22:00:00'
p102
aS'2015-01-27 23:00:00'
p103
asS'event_type'
p104
S'Anomaly'
p105
sS'url'
p106
(lp107
Vhttp://scontent-a.cdninstagram.com/hphotos-xaf1/t51.2885-15/s150x150/e15/10950463_1532453437014192_262144266_n.jpg
p108
aVhttp://scontent-b.cdninstagram.com/hphotos-xfa1/t51.2885-15/s150x150/e15/10957313_597499513727460_787650513_n.jpg
p109
aVhttp://scontent-a.cdninstagram.com/hphotos-xaf1/t51.2885-15/s150x150/e15/10946541_328896860641018_991603169_n.jpg
p110
aVhttp://scontent-a.cdninstagram.com/hphotos-xaf1/t51.2885-15/s150x150/e15/10946472_756439747777246_1976571447_n.jpg
p111
aVhttp://scontent-a.cdninstagram.com/hphotos-xfa1/t51.2885-15/s150x150/e15/10954760_385585054947319_1187055174_n.jpg
p112
aVhttp://scontent-b.cdninstagram.com/hphotos-xfa1/t51.2885-15/s150x150/e15/10948655_1545318445743986_1697659142_n.jpg
p113
aVhttp://scontent-b.cdninstagram.com/hphotos-xaf1/t51.2885-15/s150x150/e15/10946373_1545205012433266_140589702_n.jpg
p114
aVhttp://scontent-a.cdninstagram.com/hphotos-xaf1/t51.2885-15/s150x150/e15/10914231_1624424724453011_896418239_n.jpg
p115
aVhttp://scontent-a.cdninstagram.com/hphotos-xaf1/t51.2885-15/s150x150/e15/10932406_703399949781727_182841602_n.jpg
p116
aVhttp://scontent-a.cdninstagram.com/hphotos-xfa1/t51.2885-15/s150x150/e15/10895291_797860733584440_646118417_n.jpg
p117
aVhttp://scontent-a.cdninstagram.com/hphotos-xpa1/t51.2885-15/s150x150/e15/1515194_368932739945285_1576806151_n.jpg
p118
asS'lon'
p119
F-73.984005239
sS'x_h'
p120
(lp121
I2
aI0
aI5
aI1
aI1
aI4
aI2
aI4
aI1
aI1
aI27
aI2
aI0
aI15
aI10
aI3
aI0
aI4
aI2
aI1
aI2
aI1
aI1
aI3
aI14
aI2
aI3
aI10
aI1
aI5
aI0
aI2
aI2
aI2
aI4
aI4
aI2
aI1
aI3
aI15
aI2
aI2
aI19
aI4
aI3
aI0
aI3
aI0
aI0
aI1
aI2
aI0
aI1
aI2
aI4
aI1
aI2
aI1
aI2
aI0
aI1
aI1
aI0
aI1
aI2
aI1
aI1
aI2
aI1
aI0
aI1
aI1
aI2
aI1
aI1
aI1
aI1
aI0
aI1
aI1
aI0
aI0
aI2
aI0
aI1
aI9
aI3
aI0
aI5
aI2
asS'lat'
p122
F40.756712645
sS'name'
p123
S'Belasco Theatre'
p124
ssg1
(g5
S'\xed\xf6\xbb\x00\x00\x00\x00\x00'
p125
tp126
Rp127
(dp128
g12
(lp129
S'2015-01-22 09:00:00'
p130
aS'2015-01-22 10:00:00'
p131
aS'2015-01-22 11:00:00'
p132
aS'2015-01-22 12:00:00'
p133
aS'2015-01-22 13:00:00'
p134
aS'2015-01-22 14:00:00'
p135
aS'2015-01-22 15:00:00'
p136
aS'2015-01-22 16:00:00'
p137
aS'2015-01-22 17:00:00'
p138
aS'2015-01-22 18:00:00'
p139
aS'2015-01-22 19:00:00'
p140
aS'2015-01-22 20:00:00'
p141
aS'2015-01-22 21:00:00'
p142
aS'2015-01-22 22:00:00'
p143
aS'2015-01-22 23:00:00'
p144
aS'2015-01-23 09:00:00'
p145
aS'2015-01-23 10:00:00'
p146
aS'2015-01-23 11:00:00'
p147
aS'2015-01-23 12:00:00'
p148
aS'2015-01-23 13:00:00'
p149
aS'2015-01-23 14:00:00'
p150
aS'2015-01-23 15:00:00'
p151
aS'2015-01-23 16:00:00'
p152
aS'2015-01-23 17:00:00'
p153
aS'2015-01-23 18:00:00'
p154
aS'2015-01-23 19:00:00'
p155
aS'2015-01-23 20:00:00'
p156
aS'2015-01-23 21:00:00'
p157
aS'2015-01-23 22:00:00'
p158
aS'2015-01-23 23:00:00'
p159
aS'2015-01-24 09:00:00'
p160
aS'2015-01-24 10:00:00'
p161
aS'2015-01-24 11:00:00'
p162
aS'2015-01-24 12:00:00'
p163
aS'2015-01-24 13:00:00'
p164
aS'2015-01-24 14:00:00'
p165
aS'2015-01-24 15:00:00'
p166
aS'2015-01-24 16:00:00'
p167
aS'2015-01-24 17:00:00'
p168
aS'2015-01-24 18:00:00'
p169
aS'2015-01-24 19:00:00'
p170
aS'2015-01-24 20:00:00'
p171
aS'2015-01-24 21:00:00'
p172
aS'2015-01-24 22:00:00'
p173
aS'2015-01-24 23:00:00'
p174
aS'2015-01-25 09:00:00'
p175
aS'2015-01-25 10:00:00'
p176
aS'2015-01-25 11:00:00'
p177
aS'2015-01-25 12:00:00'
p178
aS'2015-01-25 13:00:00'
p179
aS'2015-01-25 14:00:00'
p180
aS'2015-01-25 15:00:00'
p181
aS'2015-01-25 16:00:00'
p182
aS'2015-01-25 17:00:00'
p183
aS'2015-01-25 18:00:00'
p184
aS'2015-01-25 19:00:00'
p185
aS'2015-01-25 20:00:00'
p186
aS'2015-01-25 21:00:00'
p187
aS'2015-01-25 22:00:00'
p188
aS'2015-01-25 23:00:00'
p189
aS'2015-01-26 09:00:00'
p190
aS'2015-01-26 10:00:00'
p191
aS'2015-01-26 11:00:00'
p192
aS'2015-01-26 12:00:00'
p193
aS'2015-01-26 13:00:00'
p194
aS'2015-01-26 14:00:00'
p195
aS'2015-01-26 15:00:00'
p196
aS'2015-01-26 16:00:00'
p197
aS'2015-01-26 17:00:00'
p198
aS'2015-01-26 18:00:00'
p199
aS'2015-01-26 19:00:00'
p200
aS'2015-01-26 20:00:00'
p201
aS'2015-01-26 21:00:00'
p202
aS'2015-01-26 22:00:00'
p203
aS'2015-01-26 23:00:00'
p204
aS'2015-01-27 09:00:00'
p205
aS'2015-01-27 10:00:00'
p206
aS'2015-01-27 11:00:00'
p207
aS'2015-01-27 12:00:00'
p208
aS'2015-01-27 13:00:00'
p209
aS'2015-01-27 14:00:00'
p210
aS'2015-01-27 15:00:00'
p211
aS'2015-01-27 16:00:00'
p212
aS'2015-01-27 17:00:00'
p213
aS'2015-01-27 18:00:00'
p214
aS'2015-01-27 19:00:00'
p215
aS'2015-01-27 20:00:00'
p216
aS'2015-01-27 21:00:00'
p217
aS'2015-01-27 22:00:00'
p218
aS'2015-01-27 23:00:00'
p219
asg104
g105
sg106
(lp220
Vhttp://scontent-b.cdninstagram.com/hphotos-xfa1/t51.2885-15/s150x150/e15/10953329_786058354815883_557505135_n.jpg
p221
aVhttp://scontent-b.cdninstagram.com/hphotos-xfa1/t51.2885-15/s150x150/e15/10948979_1407449496218038_42377676_n.jpg
p222
aVhttp://scontent-b.cdninstagram.com/hphotos-xap1/t51.2885-15/s150x150/e15/10787798_377112949136972_1492668584_n.jpg
p223
aVhttp://scontent-a.cdninstagram.com/hphotos-xfa1/t51.2885-15/s150x150/e15/10932302_866606513382918_910829644_n.jpg
p224
aVhttp://scontent-a.cdninstagram.com/hphotos-xfa1/t51.2885-15/s150x150/e15/10932059_332081240331367_270007958_n.jpg
p225
aVhttp://scontent-b.cdninstagram.com/hphotos-xaf1/t51.2885-15/s150x150/e15/10950634_549250161844405_766627699_n.jpg
p226
aVhttp://scontent-a.cdninstagram.com/hphotos-xaf1/t51.2885-15/s150x150/e15/10950498_607173672759750_1707299110_n.jpg
p227
aVhttp://scontent-b.cdninstagram.com/hphotos-xpa1/t51.2885-15/s150x150/e15/924115_1564634893783012_406829930_n.jpg
p228
aVhttp://scontent-a.cdninstagram.com/hphotos-xfa1/t51.2885-15/s150x150/e15/10932041_1543282585953864_2039772934_n.jpg
p229
aVhttp://scontent-a.cdninstagram.com/hphotos-xfa1/t51.2885-15/s150x150/e15/10946492_630676017059840_1257186548_n.jpg
p230
aVhttp://scontent-b.cdninstagram.com/hphotos-xaf1/t51.2885-15/s150x150/e15/10953045_1376880645944259_913864996_n.jpg
p231
aVhttp://scontent-b.cdninstagram.com/hphotos-xaf1/t51.2885-15/s150x150/e15/10956876_1783004298591271_1125844811_n.jpg
p232
aVhttp://scontent-a.cdninstagram.com/hphotos-xaf1/t51.2885-15/s150x150/e15/10957677_700609586704680_958921555_n.jpg
p233
aVhttp://scontent-a.cdninstagram.com/hphotos-xfa1/t51.2885-15/s150x150/e15/10932248_604597996339611_1793026514_n.jpg
p234
aVhttp://scontent-a.cdninstagram.com/hphotos-xfa1/t51.2885-15/s150x150/e15/10948826_1547276652197970_1334078375_n.jpg
p235
aVhttp://scontent-b.cdninstagram.com/hphotos-xaf1/l/t51.2885-15/s150x150/e15/10895442_1531017920498327_1431837404_n.jpg
p236
aVhttp://scontent-a.cdninstagram.com/hphotos-xaf1/t51.2885-15/s150x150/e15/10005480_1603421743212935_502854243_n.jpg
p237
aVhttp://scontent-b.cdninstagram.com/hphotos-xaf1/t51.2885-15/s150x150/e15/10932340_1552284255021988_289821926_n.jpg
p238
asg119
F-73.975309026
sg120
(lp239
I8
aI8
aI8
aI13
aI12
aI19
aI22
aI13
aI11
aI18
aI7
aI9
aI7
aI4
aI3
aI8
aI21
aI10
aI13
aI15
aI14
aI30
aI11
aI22
aI14
aI10
aI9
aI7
aI7
aI7
aI16
aI27
aI26
aI57
aI54
aI54
aI51
aI49
aI52
aI42
aI15
aI20
aI12
aI17
aI3
aI18
aI26
aI42
aI34
aI40
aI39
aI44
aI44
aI35
aI32
aI30
aI16
aI19
aI15
aI18
aI14
aI7
aI7
aI9
aI19
aI28
aI30
aI38
aI51
aI41
aI23
aI20
aI19
aI23
aI11
aI24
aI34
aI34
aI40
aI31
aI84
aI85
aI105
aI121
aI121
aI76
aI73
aI35
aI35
aI21
asg122
F40.768924763
sg123
S'Central Park'
p240
ssg1
(g5
S'-a\x1c\x00\x00\x00\x00\x00'
p241
tp242
Rp243
(dp244
g12
(lp245
S'2015-01-22 09:00:00'
p246
aS'2015-01-22 10:00:00'
p247
aS'2015-01-22 11:00:00'
p248
aS'2015-01-22 12:00:00'
p249
aS'2015-01-22 13:00:00'
p250
aS'2015-01-22 14:00:00'
p251
aS'2015-01-22 15:00:00'
p252
aS'2015-01-22 16:00:00'
p253
aS'2015-01-22 17:00:00'
p254
aS'2015-01-22 18:00:00'
p255
aS'2015-01-22 19:00:00'
p256
aS'2015-01-22 20:00:00'
p257
aS'2015-01-22 21:00:00'
p258
aS'2015-01-22 22:00:00'
p259
aS'2015-01-22 23:00:00'
p260
aS'2015-01-23 09:00:00'
p261
aS'2015-01-23 10:00:00'
p262
aS'2015-01-23 11:00:00'
p263
aS'2015-01-23 12:00:00'
p264
aS'2015-01-23 13:00:00'
p265
aS'2015-01-23 14:00:00'
p266
aS'2015-01-23 15:00:00'
p267
aS'2015-01-23 16:00:00'
p268
aS'2015-01-23 17:00:00'
p269
aS'2015-01-23 18:00:00'
p270
aS'2015-01-23 19:00:00'
p271
aS'2015-01-23 20:00:00'
p272
aS'2015-01-23 21:00:00'
p273
aS'2015-01-23 22:00:00'
p274
aS'2015-01-23 23:00:00'
p275
aS'2015-01-24 09:00:00'
p276
aS'2015-01-24 10:00:00'
p277
aS'2015-01-24 11:00:00'
p278
aS'2015-01-24 12:00:00'
p279
aS'2015-01-24 13:00:00'
p280
aS'2015-01-24 14:00:00'
p281
aS'2015-01-24 15:00:00'
p282
aS'2015-01-24 16:00:00'
p283
aS'2015-01-24 17:00:00'
p284
aS'2015-01-24 18:00:00'
p285
aS'2015-01-24 19:00:00'
p286
aS'2015-01-24 20:00:00'
p287
aS'2015-01-24 21:00:00'
p288
aS'2015-01-24 22:00:00'
p289
aS'2015-01-24 23:00:00'
p290
aS'2015-01-25 09:00:00'
p291
aS'2015-01-25 10:00:00'
p292
aS'2015-01-25 11:00:00'
p293
aS'2015-01-25 12:00:00'
p294
aS'2015-01-25 13:00:00'
p295
aS'2015-01-25 14:00:00'
p296
aS'2015-01-25 15:00:00'
p297
aS'2015-01-25 16:00:00'
p298
aS'2015-01-25 17:00:00'
p299
aS'2015-01-25 18:00:00'
p300
aS'2015-01-25 19:00:00'
p301
aS'2015-01-25 20:00:00'
p302
aS'2015-01-25 21:00:00'
p303
aS'2015-01-25 22:00:00'
p304
aS'2015-01-25 23:00:00'
p305
aS'2015-01-26 09:00:00'
p306
aS'2015-01-26 10:00:00'
p307
aS'2015-01-26 11:00:00'
p308
aS'2015-01-26 12:00:00'
p309
aS'2015-01-26 13:00:00'
p310
aS'2015-01-26 14:00:00'
p311
aS'2015-01-26 15:00:00'
p312
aS'2015-01-26 16:00:00'
p313
aS'2015-01-26 17:00:00'
p314
aS'2015-01-26 18:00:00'
p315
aS'2015-01-26 19:00:00'
p316
aS'2015-01-26 20:00:00'
p317
aS'2015-01-26 21:00:00'
p318
aS'2015-01-26 22:00:00'
p319
aS'2015-01-26 23:00:00'
p320
aS'2015-01-27 09:00:00'
p321
aS'2015-01-27 10:00:00'
p322
aS'2015-01-27 11:00:00'
p323
aS'2015-01-27 12:00:00'
p324
aS'2015-01-27 13:00:00'
p325
aS'2015-01-27 14:00:00'
p326
aS'2015-01-27 15:00:00'
p327
aS'2015-01-27 16:00:00'
p328
aS'2015-01-27 17:00:00'
p329
aS'2015-01-27 18:00:00'
p330
aS'2015-01-27 19:00:00'
p331
aS'2015-01-27 20:00:00'
p332
aS'2015-01-27 21:00:00'
p333
aS'2015-01-27 22:00:00'
p334
aS'2015-01-27 23:00:00'
p335
asg104
g105
sg106
(lp336
Vhttp://scontent-a.cdninstagram.com/hphotos-xpa1/t51.2885-15/s150x150/e15/1598678_327389784116262_1867107117_n.jpg
p337
aVhttp://scontent-a.cdninstagram.com/hphotos-xaf1/t51.2885-15/s150x150/e15/10946461_775211259233059_699401295_n.jpg
p338
aVhttp://scontent-b.cdninstagram.com/hphotos-xfa1/t51.2885-15/s150x150/e15/10950320_896637710380724_11737746_n.jpg
p339
aVhttp://scontent-b.cdninstagram.com/hphotos-xfa1/t51.2885-15/s150x150/e15/10948775_1531906787060487_2011191773_n.jpg
p340
aVhttp://scontent-b.cdninstagram.com/hphotos-xaf1/t51.2885-15/s150x150/e15/10950517_828829767178434_624445861_n.jpg
p341
aVhttp://scontent-a.cdninstagram.com/hphotos-xaf1/t51.2885-15/s150x150/e15/10914433_1035254533157149_1525689667_n.jpg
p342
aVhttp://scontent-b.cdninstagram.com/hphotos-xaf1/t51.2885-15/s150x150/e15/10946575_917290601629237_265123227_n.jpg
p343
aVhttp://scontent-b.cdninstagram.com/hphotos-xpa1/t51.2885-15/s150x150/e15/924110_606802349464101_1230297190_n.jpg
p344
aVhttp://scontent-a.cdninstagram.com/hphotos-xaf1/t51.2885-15/s150x150/e15/10954227_686770084765869_1592092876_n.jpg
p345
aVhttp://scontent-b.cdninstagram.com/hphotos-xaf1/t51.2885-15/s150x150/e15/10914633_1394284584209498_2030653994_n.jpg
p346
aVhttp://scontent-b.cdninstagram.com/hphotos-xaf1/t51.2885-15/s150x150/e15/10005480_1585831798295022_1672696176_n.jpg
p347
aVhttp://scontent-b.cdninstagram.com/hphotos-xfa1/t51.2885-15/s150x150/e15/10914335_539945259481061_1333117100_n.jpg
p348
aVhttp://scontent-b.cdninstagram.com/hphotos-xaf1/t51.2885-15/s150x150/e15/10932219_327806547420952_140199096_n.jpg
p349
aVhttp://scontent-b.cdninstagram.com/hphotos-xaf1/t51.2885-15/s150x150/e15/10932138_1577775752440300_209783327_n.jpg
p350
aVhttp://scontent-a.cdninstagram.com/hphotos-xaf1/t51.2885-15/s150x150/e15/10914225_402506606585488_378385210_n.jpg
p351
aVhttp://scontent-b.cdninstagram.com/hphotos-xaf1/t51.2885-15/s150x150/e15/10932324_949291375083731_792183036_n.jpg
p352
aVhttp://scontent-a.cdninstagram.com/hphotos-xap1/t51.2885-15/s150x150/e15/924114_1766140913611962_137813869_n.jpg
p353
aVhttp://scontent-b.cdninstagram.com/hphotos-xfa1/t51.2885-15/s150x150/e15/10895240_787973424590542_1708977308_n.jpg
p354
asg119
F-73.995641421
sg120
(lp355
I0
aI1
aI0
aI3
aI8
aI2
aI2
aI4
aI4
aI6
aI2
aI4
aI4
aI2
aI1
aI2
aI0
aI1
aI1
aI3
aI3
aI1
aI5
aI6
aI3
aI5
aI3
aI3
aI4
aI4
aI3
aI3
aI1
aI2
aI2
aI5
aI3
aI7
aI3
aI7
aI4
aI4
aI3
aI3
aI1
aI2
aI4
aI3
aI6
aI1
aI7
aI6
aI6
aI11
aI11
aI8
aI6
aI6
aI4
aI3
aI3
aI1
aI2
aI2
aI3
aI3
aI2
aI4
aI4
aI9
aI6
aI1
aI3
aI2
aI2
aI4
aI6
aI9
aI9
aI6
aI4
aI6
aI12
aI7
aI11
aI8
aI5
aI3
aI2
aI1
asg122
F40.702694964
sg123
S'Brooklyn Bridge Park'
p356
ssg1
(g5
S'V\xd9\xd4\x0c\x00\x00\x00\x00'
p357
tp358
Rp359
(dp360
g12
(lp361
S'2015-01-22 09:00:00'
p362
aS'2015-01-22 10:00:00'
p363
aS'2015-01-22 11:00:00'
p364
aS'2015-01-22 12:00:00'
p365
aS'2015-01-22 13:00:00'
p366
aS'2015-01-22 14:00:00'
p367
aS'2015-01-22 15:00:00'
p368
aS'2015-01-22 16:00:00'
p369
aS'2015-01-22 17:00:00'
p370
aS'2015-01-22 18:00:00'
p371
aS'2015-01-22 19:00:00'
p372
aS'2015-01-22 20:00:00'
p373
aS'2015-01-22 21:00:00'
p374
aS'2015-01-22 22:00:00'
p375
aS'2015-01-22 23:00:00'
p376
aS'2015-01-23 09:00:00'
p377
aS'2015-01-23 10:00:00'
p378
aS'2015-01-23 11:00:00'
p379
aS'2015-01-23 12:00:00'
p380
aS'2015-01-23 13:00:00'
p381
aS'2015-01-23 14:00:00'
p382
aS'2015-01-23 15:00:00'
p383
aS'2015-01-23 16:00:00'
p384
aS'2015-01-23 17:00:00'
p385
aS'2015-01-23 18:00:00'
p386
aS'2015-01-23 19:00:00'
p387
aS'2015-01-23 20:00:00'
p388
aS'2015-01-23 21:00:00'
p389
aS'2015-01-23 22:00:00'
p390
aS'2015-01-23 23:00:00'
p391
aS'2015-01-24 09:00:00'
p392
aS'2015-01-24 10:00:00'
p393
aS'2015-01-24 11:00:00'
p394
aS'2015-01-24 12:00:00'
p395
aS'2015-01-24 13:00:00'
p396
aS'2015-01-24 14:00:00'
p397
aS'2015-01-24 15:00:00'
p398
aS'2015-01-24 16:00:00'
p399
aS'2015-01-24 17:00:00'
p400
aS'2015-01-24 18:00:00'
p401
aS'2015-01-24 19:00:00'
p402
aS'2015-01-24 20:00:00'
p403
aS'2015-01-24 21:00:00'
p404
aS'2015-01-24 22:00:00'
p405
aS'2015-01-24 23:00:00'
p406
aS'2015-01-25 09:00:00'
p407
aS'2015-01-25 10:00:00'
p408
aS'2015-01-25 11:00:00'
p409
aS'2015-01-25 12:00:00'
p410
aS'2015-01-25 13:00:00'
p411
aS'2015-01-25 14:00:00'
p412
aS'2015-01-25 15:00:00'
p413
aS'2015-01-25 16:00:00'
p414
aS'2015-01-25 17:00:00'
p415
aS'2015-01-25 18:00:00'
p416
aS'2015-01-25 19:00:00'
p417
aS'2015-01-25 20:00:00'
p418
aS'2015-01-25 21:00:00'
p419
aS'2015-01-25 22:00:00'
p420
aS'2015-01-25 23:00:00'
p421
aS'2015-01-26 09:00:00'
p422
aS'2015-01-26 10:00:00'
p423
aS'2015-01-26 11:00:00'
p424
aS'2015-01-26 12:00:00'
p425
aS'2015-01-26 13:00:00'
p426
aS'2015-01-26 14:00:00'
p427
aS'2015-01-26 15:00:00'
p428
aS'2015-01-26 16:00:00'
p429
aS'2015-01-26 17:00:00'
p430
aS'2015-01-26 18:00:00'
p431
aS'2015-01-26 19:00:00'
p432
aS'2015-01-26 20:00:00'
p433
aS'2015-01-26 21:00:00'
p434
aS'2015-01-26 22:00:00'
p435
aS'2015-01-26 23:00:00'
p436
aS'2015-01-27 09:00:00'
p437
aS'2015-01-27 10:00:00'
p438
aS'2015-01-27 11:00:00'
p439
aS'2015-01-27 12:00:00'
p440
aS'2015-01-27 13:00:00'
p441
aS'2015-01-27 14:00:00'
p442
aS'2015-01-27 15:00:00'
p443
aS'2015-01-27 16:00:00'
p444
aS'2015-01-27 17:00:00'
p445
aS'2015-01-27 18:00:00'
p446
aS'2015-01-27 19:00:00'
p447
aS'2015-01-27 20:00:00'
p448
aS'2015-01-27 21:00:00'
p449
aS'2015-01-27 22:00:00'
p450
aS'2015-01-27 23:00:00'
p451
asg104
g105
sg106
(lp452
Vhttp://scontent-a.cdninstagram.com/hphotos-xfa1/t51.2885-15/s150x150/e15/10950566_785699118176599_2092668383_n.jpg
p453
aVhttp://scontent-a.cdninstagram.com/hphotos-xaf1/t51.2885-15/s150x150/e15/10948534_350307255170764_778217353_n.jpg
p454
aVhttp://scontent-b.cdninstagram.com/hphotos-xaf1/t51.2885-15/s150x150/e15/10326552_795063013875189_1214449089_n.jpg
p455
aVhttp://scontent-b.cdninstagram.com/hphotos-xaf1/t51.2885-15/s150x150/e15/10952550_728183647295447_449523369_n.jpg
p456
aVhttp://scontent-a.cdninstagram.com/hphotos-xaf1/t51.2885-15/s150x150/e15/10954033_1612251502327564_648432849_n.jpg
p457
aVhttp://scontent-b.cdninstagram.com/hphotos-xaf1/t51.2885-15/s150x150/e15/10895499_773124832778279_1919767753_n.jpg
p458
aVhttp://scontent-b.cdninstagram.com/hphotos-xfa1/t51.2885-15/s150x150/e15/10932602_824001170979399_71343275_n.jpg
p459
aVhttp://scontent-a.cdninstagram.com/hphotos-xaf1/t51.2885-15/s150x150/e15/10952700_1542447569367551_814238969_n.jpg
p460
aVhttp://scontent-a.cdninstagram.com/hphotos-xaf1/t51.2885-15/s150x150/e15/10950478_438398766312003_584888244_n.jpg
p461
aVhttp://scontent-a.cdninstagram.com/hphotos-xaf1/t51.2885-15/s150x150/e15/10946268_1605187246379879_1774335296_n.jpg
p462
asg119
F-74.009444444
sg120
(lp463
I0
aI2
aI1
aI1
aI2
aI2
aI3
aI1
aI0
aI1
aI3
aI0
aI1
aI1
aI1
aI0
aI0
aI1
aI0
aI1
aI0
aI0
aI1
aI1
aI5
aI1
aI4
aI1
aI2
aI1
aI0
aI2
aI3
aI1
aI2
aI2
aI4
aI3
aI4
aI2
aI2
aI7
aI3
aI2
aI2
aI1
aI2
aI6
aI3
aI3
aI3
aI6
aI6
aI6
aI2
aI1
aI3
aI4
aI2
aI2
aI7
aI2
aI5
aI9
aI5
aI7
aI8
aI8
aI14
aI9
aI5
aI4
aI8
aI3
aI4
aI7
aI3
aI11
aI7
aI4
aI8
aI2
aI4
aI4
aI1
aI5
aI0
aI3
aI0
aI3
asg122
F40.706388889
sg123
S'Wall Street'
p464
ssg1
(g5
S'\xd7\x05\x00\x00\x00\x00\x00\x00'
p465
tp466
Rp467
(dp468
g12
(lp469
S'2015-01-22 09:00:00'
p470
aS'2015-01-22 10:00:00'
p471
aS'2015-01-22 11:00:00'
p472
aS'2015-01-22 12:00:00'
p473
aS'2015-01-22 13:00:00'
p474
aS'2015-01-22 14:00:00'
p475
aS'2015-01-22 15:00:00'
p476
aS'2015-01-22 16:00:00'
p477
aS'2015-01-22 17:00:00'
p478
aS'2015-01-22 18:00:00'
p479
aS'2015-01-22 19:00:00'
p480
aS'2015-01-22 20:00:00'
p481
aS'2015-01-22 21:00:00'
p482
aS'2015-01-22 22:00:00'
p483
aS'2015-01-22 23:00:00'
p484
aS'2015-01-23 09:00:00'
p485
aS'2015-01-23 10:00:00'
p486
aS'2015-01-23 11:00:00'
p487
aS'2015-01-23 12:00:00'
p488
aS'2015-01-23 13:00:00'
p489
aS'2015-01-23 14:00:00'
p490
aS'2015-01-23 15:00:00'
p491
aS'2015-01-23 16:00:00'
p492
aS'2015-01-23 17:00:00'
p493
aS'2015-01-23 18:00:00'
p494
aS'2015-01-23 19:00:00'
p495
aS'2015-01-23 20:00:00'
p496
aS'2015-01-23 21:00:00'
p497
aS'2015-01-23 22:00:00'
p498
aS'2015-01-23 23:00:00'
p499
aS'2015-01-24 09:00:00'
p500
aS'2015-01-24 10:00:00'
p501
aS'2015-01-24 11:00:00'
p502
aS'2015-01-24 12:00:00'
p503
aS'2015-01-24 13:00:00'
p504
aS'2015-01-24 14:00:00'
p505
aS'2015-01-24 15:00:00'
p506
aS'2015-01-24 16:00:00'
p507
aS'2015-01-24 17:00:00'
p508
aS'2015-01-24 18:00:00'
p509
aS'2015-01-24 19:00:00'
p510
aS'2015-01-24 20:00:00'
p511
aS'2015-01-24 21:00:00'
p512
aS'2015-01-24 22:00:00'
p513
aS'2015-01-24 23:00:00'
p514
aS'2015-01-25 09:00:00'
p515
aS'2015-01-25 10:00:00'
p516
aS'2015-01-25 11:00:00'
p517
aS'2015-01-25 12:00:00'
p518
aS'2015-01-25 13:00:00'
p519
aS'2015-01-25 14:00:00'
p520
aS'2015-01-25 15:00:00'
p521
aS'2015-01-25 16:00:00'
p522
aS'2015-01-25 17:00:00'
p523
aS'2015-01-25 18:00:00'
p524
aS'2015-01-25 19:00:00'
p525
aS'2015-01-25 20:00:00'
p526
aS'2015-01-25 21:00:00'
p527
aS'2015-01-25 22:00:00'
p528
aS'2015-01-25 23:00:00'
p529
aS'2015-01-26 09:00:00'
p530
aS'2015-01-26 10:00:00'
p531
aS'2015-01-26 11:00:00'
p532
aS'2015-01-26 12:00:00'
p533
aS'2015-01-26 13:00:00'
p534
aS'2015-01-26 14:00:00'
p535
aS'2015-01-26 15:00:00'
p536
aS'2015-01-26 16:00:00'
p537
aS'2015-01-26 17:00:00'
p538
aS'2015-01-26 18:00:00'
p539
aS'2015-01-26 19:00:00'
p540
aS'2015-01-26 20:00:00'
p541
aS'2015-01-26 21:00:00'
p542
aS'2015-01-26 22:00:00'
p543
aS'2015-01-26 23:00:00'
p544
aS'2015-01-27 09:00:00'
p545
aS'2015-01-27 10:00:00'
p546
aS'2015-01-27 11:00:00'
p547
aS'2015-01-27 12:00:00'
p548
aS'2015-01-27 13:00:00'
p549
aS'2015-01-27 14:00:00'
p550
aS'2015-01-27 15:00:00'
p551
aS'2015-01-27 16:00:00'
p552
aS'2015-01-27 17:00:00'
p553
aS'2015-01-27 18:00:00'
p554
aS'2015-01-27 19:00:00'
p555
aS'2015-01-27 20:00:00'
p556
aS'2015-01-27 21:00:00'
p557
aS'2015-01-27 22:00:00'
p558
aS'2015-01-27 23:00:00'
p559
asg104
g105
sg106
(lp560
Vhttp://scontent-b.cdninstagram.com/hphotos-xaf1/t51.2885-15/s150x150/e15/10948987_910794372285049_1051240949_n.jpg
p561
aVhttp://scontent-b.cdninstagram.com/hphotos-xaf1/t51.2885-15/s150x150/e15/10914627_519525724852471_323962723_n.jpg
p562
aVhttp://scontent-b.cdninstagram.com/hphotos-xaf1/t51.2885-15/s150x150/e15/10932259_742695345814871_640175373_n.jpg
p563
aVhttp://scontent-a.cdninstagram.com/hphotos-xaf1/t51.2885-15/s150x150/e15/10945228_775741602515761_1952397430_n.jpg
p564
aVhttp://scontent-b.cdninstagram.com/hphotos-xfa1/t51.2885-15/s150x150/e15/10914335_317888151744365_1219492307_n.jpg
p565
aVhttp://scontent-a.cdninstagram.com/hphotos-xaf1/t51.2885-15/s150x150/e15/10956534_883455351675937_1475646873_n.jpg
p566
aVhttp://scontent-a.cdninstagram.com/hphotos-xfa1/t51.2885-15/s150x150/e15/10953665_1411730255791347_365162335_n.jpg
p567
aVhttp://scontent-a.cdninstagram.com/hphotos-xfa1/t51.2885-15/s150x150/e15/10932167_799493350106332_782292436_n.jpg
p568
aVhttp://scontent-b.cdninstagram.com/hphotos-xaf1/t51.2885-15/s150x150/e15/10946560_592177174246227_136199381_n.jpg
p569
aVhttp://scontent-a.cdninstagram.com/hphotos-xfa1/t51.2885-15/s150x150/e15/10948706_1394278390876595_260147940_n.jpg
p570
aVhttp://scontent-a.cdninstagram.com/hphotos-xpa1/t51.2885-15/s150x150/e15/10175187_604722119671979_960577100_n.jpg
p571
aVhttp://scontent-a.cdninstagram.com/hphotos-xfa1/t51.2885-15/s150x150/e15/914510_391531671025051_61536615_n.jpg
p572
aVhttp://scontent-b.cdninstagram.com/hphotos-xaf1/t51.2885-15/s150x150/e15/10953672_393911590784593_1100050575_n.jpg
p573
aVhttp://scontent-b.cdninstagram.com/hphotos-xfa1/t51.2885-15/s150x150/e15/10946474_898249920220482_1339229002_n.jpg
p574
aVhttp://scontent-b.cdninstagram.com/hphotos-xaf1/t51.2885-15/s150x150/e15/10865209_789694367752324_1438849711_n.jpg
p575
aVhttp://scontent-a.cdninstagram.com/hphotos-xaf1/t51.2885-15/s150x150/e15/10932100_797841813618570_242349965_n.jpg
p576
aVhttp://scontent-b.cdninstagram.com/hphotos-xaf1/t51.2885-15/s150x150/e15/10946422_1620972564804092_1008550061_n.jpg
p577
aVhttp://scontent-b.cdninstagram.com/hphotos-xap1/t51.2885-15/s150x150/e15/10787834_824575100931900_1546795026_n.jpg
p578
asg119
F-73.997474916
sg120
(lp579
I0
aI3
aI6
aI8
aI7
aI14
aI9
aI8
aI7
aI2
aI6
aI8
aI5
aI4
aI3
aI3
aI4
aI2
aI12
aI13
aI5
aI8
aI5
aI7
aI8
aI6
aI8
aI6
aI9
aI7
aI3
aI7
aI9
aI10
aI12
aI9
aI6
aI12
aI21
aI8
aI3
aI5
aI5
aI5
aI6
aI4
aI4
aI5
aI8
aI14
aI10
aI14
aI14
aI8
aI14
aI9
aI6
aI16
aI4
aI7
aI7
aI5
aI13
aI10
aI12
aI14
aI37
aI37
aI47
aI37
aI15
aI22
aI19
aI15
aI13
aI19
aI13
aI19
aI15
aI8
aI39
aI45
aI44
aI41
aI32
aI20
aI13
aI17
aI12
aI9
asg122
F40.730891947
sg123
S'Washington Square Park'
p580
ssg1
(g5
S'\xd9\xa0W\x13\x00\x00\x00\x00'
p581
tp582
Rp583
(dp584
g12
(lp585
S'2015-01-22 09:00:00'
p586
aS'2015-01-22 10:00:00'
p587
aS'2015-01-22 11:00:00'
p588
aS'2015-01-22 12:00:00'
p589
aS'2015-01-22 13:00:00'
p590
aS'2015-01-22 14:00:00'
p591
aS'2015-01-22 15:00:00'
p592
aS'2015-01-22 16:00:00'
p593
aS'2015-01-22 17:00:00'
p594
aS'2015-01-22 18:00:00'
p595
aS'2015-01-22 19:00:00'
p596
aS'2015-01-22 20:00:00'
p597
aS'2015-01-22 21:00:00'
p598
aS'2015-01-22 22:00:00'
p599
aS'2015-01-22 23:00:00'
p600
aS'2015-01-23 09:00:00'
p601
aS'2015-01-23 10:00:00'
p602
aS'2015-01-23 11:00:00'
p603
aS'2015-01-23 12:00:00'
p604
aS'2015-01-23 13:00:00'
p605
aS'2015-01-23 14:00:00'
p606
aS'2015-01-23 15:00:00'
p607
aS'2015-01-23 16:00:00'
p608
aS'2015-01-23 17:00:00'
p609
aS'2015-01-23 18:00:00'
p610
aS'2015-01-23 19:00:00'
p611
aS'2015-01-23 20:00:00'
p612
aS'2015-01-23 21:00:00'
p613
aS'2015-01-23 22:00:00'
p614
aS'2015-01-23 23:00:00'
p615
aS'2015-01-24 09:00:00'
p616
aS'2015-01-24 10:00:00'
p617
aS'2015-01-24 11:00:00'
p618
aS'2015-01-24 12:00:00'
p619
aS'2015-01-24 13:00:00'
p620
aS'2015-01-24 14:00:00'
p621
aS'2015-01-24 15:00:00'
p622
aS'2015-01-24 16:00:00'
p623
aS'2015-01-24 17:00:00'
p624
aS'2015-01-24 18:00:00'
p625
aS'2015-01-24 19:00:00'
p626
aS'2015-01-24 20:00:00'
p627
aS'2015-01-24 21:00:00'
p628
aS'2015-01-24 22:00:00'
p629
aS'2015-01-24 23:00:00'
p630
aS'2015-01-25 09:00:00'
p631
aS'2015-01-25 10:00:00'
p632
aS'2015-01-25 11:00:00'
p633
aS'2015-01-25 12:00:00'
p634
aS'2015-01-25 13:00:00'
p635
aS'2015-01-25 14:00:00'
p636
aS'2015-01-25 15:00:00'
p637
aS'2015-01-25 16:00:00'
p638
aS'2015-01-25 17:00:00'
p639
aS'2015-01-25 18:00:00'
p640
aS'2015-01-25 19:00:00'
p641
aS'2015-01-25 20:00:00'
p642
aS'2015-01-25 21:00:00'
p643
aS'2015-01-25 22:00:00'
p644
aS'2015-01-25 23:00:00'
p645
aS'2015-01-26 09:00:00'
p646
aS'2015-01-26 10:00:00'
p647
aS'2015-01-26 11:00:00'
p648
aS'2015-01-26 12:00:00'
p649
aS'2015-01-26 13:00:00'
p650
aS'2015-01-26 14:00:00'
p651
aS'2015-01-26 15:00:00'
p652
aS'2015-01-26 16:00:00'
p653
aS'2015-01-26 17:00:00'
p654
aS'2015-01-26 18:00:00'
p655
aS'2015-01-26 19:00:00'
p656
aS'2015-01-26 20:00:00'
p657
aS'2015-01-26 21:00:00'
p658
aS'2015-01-26 22:00:00'
p659
aS'2015-01-26 23:00:00'
p660
aS'2015-01-27 09:00:00'
p661
aS'2015-01-27 10:00:00'
p662
aS'2015-01-27 11:00:00'
p663
aS'2015-01-27 12:00:00'
p664
aS'2015-01-27 13:00:00'
p665
aS'2015-01-27 14:00:00'
p666
aS'2015-01-27 15:00:00'
p667
aS'2015-01-27 16:00:00'
p668
aS'2015-01-27 17:00:00'
p669
aS'2015-01-27 18:00:00'
p670
aS'2015-01-27 19:00:00'
p671
aS'2015-01-27 20:00:00'
p672
aS'2015-01-27 21:00:00'
p673
aS'2015-01-27 22:00:00'
p674
aS'2015-01-27 23:00:00'
p675
asg104
g105
sg106
(lp676
Vhttp://scontent-b.cdninstagram.com/hphotos-xfa1/t51.2885-15/s150x150/e15/10949033_840236842701920_1262834961_n.jpg
p677
aVhttp://scontent-a.cdninstagram.com/hphotos-xaf1/t51.2885-15/s150x150/e15/10948692_1443284985961671_845986308_n.jpg
p678
aVhttp://scontent-a.cdninstagram.com/hphotos-xfa1/t51.2885-15/s150x150/e15/10932044_772419259506194_410694439_n.jpg
p679
aVhttp://scontent-a.cdninstagram.com/hphotos-xfa1/t51.2885-15/s150x150/e15/10953065_636136346513185_1029097511_n.jpg
p680
aVhttp://scontent-a.cdninstagram.com/hphotos-xaf1/t51.2885-15/s150x150/e15/10919131_642300619232104_1058408681_n.jpg
p681
aVhttp://scontent-b.cdninstagram.com/hphotos-xaf1/t51.2885-15/s150x150/e15/10950640_513203425484357_1656488962_n.jpg
p682
aVhttp://scontent-a.cdninstagram.com/hphotos-xaf1/t51.2885-15/s150x150/e15/10932181_355312474676199_1546524051_n.jpg
p683
aVhttp://scontent-b.cdninstagram.com/hphotos-xfa1/t51.2885-15/s150x150/e15/10948700_779211418837214_443118615_n.jpg
p684
aVhttp://scontent-a.cdninstagram.com/hphotos-xpa1/t51.2885-15/s150x150/e15/924617_418810408273830_801451944_n.jpg
p685
aVhttp://scontent-a.cdninstagram.com/hphotos-xfa1/t51.2885-15/s150x150/e15/10953662_1030111947006016_2118178935_n.jpg
p686
aVhttp://scontent-b.cdninstagram.com/hphotos-xfa1/t51.2885-15/s150x150/e15/10919630_1775595955999956_620733554_n.jpg
p687
aVhttp://scontent-a.cdninstagram.com/hphotos-xaf1/t51.2885-15/s150x150/e15/10948771_795894530481557_225392804_n.jpg
p688
aVhttp://scontent-b.cdninstagram.com/hphotos-xfa1/t51.2885-15/s150x150/e15/10932323_1554488088131861_119933909_n.jpg
p689
aVhttp://scontent-a.cdninstagram.com/hphotos-xaf1/t51.2885-15/s150x150/e15/10895484_805792029491000_324329980_n.jpg
p690
aVhttp://scontent-b.cdninstagram.com/hphotos-xfa1/t51.2885-15/s150x150/e15/10932365_1451301771791908_1979271641_n.jpg
p691
aVhttp://scontent-b.cdninstagram.com/hphotos-xfa1/t51.2885-15/s150x150/e15/10948310_594900870610863_1705950778_n.jpg
p692
aVhttp://scontent-b.cdninstagram.com/hphotos-xfa1/t51.2885-15/s150x150/e15/10895471_457701024383790_470462354_n.jpg
p693
aVhttp://scontent-b.cdninstagram.com/hphotos-xaf1/t51.2885-15/s150x150/e15/10946319_1519063408369793_531994769_n.jpg
p694
asg119
F-73.979889745
sg120
(lp695
I8
aI9
aI15
aI15
aI17
aI21
aI26
aI27
aI26
aI21
aI23
aI15
aI16
aI13
aI9
aI19
aI17
aI12
aI24
aI17
aI16
aI28
aI21
aI34
aI21
aI15
aI9
aI14
aI9
aI7
aI16
aI24
aI43
aI49
aI31
aI51
aI31
aI60
aI69
aI58
aI34
aI30
aI21
aI17
aI23
aI16
aI34
aI24
aI32
aI48
aI51
aI46
aI46
aI57
aI37
aI54
aI30
aI19
aI21
aI12
aI18
aI21
aI27
aI28
aI21
aI30
aI54
aI67
aI67
aI53
aI40
aI41
aI40
aI26
aI15
aI40
aI37
aI48
aI67
aI45
aI107
aI163
aI175
aI188
aI134
aI133
aI70
aI60
aI53
aI50
asg122
F40.768107916
sg123
S'Central Park'
p696
ssg1
(g5
S'\xfa\x0b\x00\x00\x00\x00\x00\x00'
p697
tp698
Rp699
(dp700
g12
(lp701
S'2015-01-22 09:00:00'
p702
aS'2015-01-22 10:00:00'
p703
aS'2015-01-22 11:00:00'
p704
aS'2015-01-22 12:00:00'
p705
aS'2015-01-22 13:00:00'
p706
aS'2015-01-22 14:00:00'
p707
aS'2015-01-22 15:00:00'
p708
aS'2015-01-22 16:00:00'
p709
aS'2015-01-22 17:00:00'
p710
aS'2015-01-22 18:00:00'
p711
aS'2015-01-22 19:00:00'
p712
aS'2015-01-22 20:00:00'
p713
aS'2015-01-22 21:00:00'
p714
aS'2015-01-22 22:00:00'
p715
aS'2015-01-22 23:00:00'
p716
aS'2015-01-23 09:00:00'
p717
aS'2015-01-23 10:00:00'
p718
aS'2015-01-23 11:00:00'
p719
aS'2015-01-23 12:00:00'
p720
aS'2015-01-23 13:00:00'
p721
aS'2015-01-23 14:00:00'
p722
aS'2015-01-23 15:00:00'
p723
aS'2015-01-23 16:00:00'
p724
aS'2015-01-23 17:00:00'
p725
aS'2015-01-23 18:00:00'
p726
aS'2015-01-23 19:00:00'
p727
aS'2015-01-23 20:00:00'
p728
aS'2015-01-23 21:00:00'
p729
aS'2015-01-23 22:00:00'
p730
aS'2015-01-23 23:00:00'
p731
aS'2015-01-24 09:00:00'
p732
aS'2015-01-24 10:00:00'
p733
aS'2015-01-24 11:00:00'
p734
aS'2015-01-24 12:00:00'
p735
aS'2015-01-24 13:00:00'
p736
aS'2015-01-24 14:00:00'
p737
aS'2015-01-24 15:00:00'
p738
aS'2015-01-24 16:00:00'
p739
aS'2015-01-24 17:00:00'
p740
aS'2015-01-24 18:00:00'
p741
aS'2015-01-24 19:00:00'
p742
aS'2015-01-24 20:00:00'
p743
aS'2015-01-24 21:00:00'
p744
aS'2015-01-24 22:00:00'
p745
aS'2015-01-24 23:00:00'
p746
aS'2015-01-25 09:00:00'
p747
aS'2015-01-25 10:00:00'
p748
aS'2015-01-25 11:00:00'
p749
aS'2015-01-25 12:00:00'
p750
aS'2015-01-25 13:00:00'
p751
aS'2015-01-25 14:00:00'
p752
aS'2015-01-25 15:00:00'
p753
aS'2015-01-25 16:00:00'
p754
aS'2015-01-25 17:00:00'
p755
aS'2015-01-25 18:00:00'
p756
aS'2015-01-25 19:00:00'
p757
aS'2015-01-25 20:00:00'
p758
aS'2015-01-25 21:00:00'
p759
aS'2015-01-25 22:00:00'
p760
aS'2015-01-25 23:00:00'
p761
aS'2015-01-26 09:00:00'
p762
aS'2015-01-26 10:00:00'
p763
aS'2015-01-26 11:00:00'
p764
aS'2015-01-26 12:00:00'
p765
aS'2015-01-26 13:00:00'
p766
aS'2015-01-26 14:00:00'
p767
aS'2015-01-26 15:00:00'
p768
aS'2015-01-26 16:00:00'
p769
aS'2015-01-26 17:00:00'
p770
aS'2015-01-26 18:00:00'
p771
aS'2015-01-26 19:00:00'
p772
aS'2015-01-26 20:00:00'
p773
aS'2015-01-26 21:00:00'
p774
aS'2015-01-26 22:00:00'
p775
aS'2015-01-26 23:00:00'
p776
aS'2015-01-27 09:00:00'
p777
aS'2015-01-27 10:00:00'
p778
aS'2015-01-27 11:00:00'
p779
aS'2015-01-27 12:00:00'
p780
aS'2015-01-27 13:00:00'
p781
aS'2015-01-27 14:00:00'
p782
aS'2015-01-27 15:00:00'
p783
aS'2015-01-27 16:00:00'
p784
aS'2015-01-27 17:00:00'
p785
aS'2015-01-27 18:00:00'
p786
aS'2015-01-27 19:00:00'
p787
aS'2015-01-27 20:00:00'
p788
aS'2015-01-27 21:00:00'
p789
aS'2015-01-27 22:00:00'
p790
aS'2015-01-27 23:00:00'
p791
asg104
g105
sg106
(lp792
Vhttp://scontent-b.cdninstagram.com/hphotos-xaf1/t51.2885-15/s150x150/e15/10956598_1546011312323334_1429567346_n.jpg
p793
aVhttp://scontent-a.cdninstagram.com/hphotos-xpa1/t51.2885-15/s150x150/e15/10453937_778473492232471_395390832_n.jpg
p794
aVhttp://scontent-a.cdninstagram.com/hphotos-xfa1/t51.2885-15/s150x150/e15/10946534_769094289835466_31315337_n.jpg
p795
aVhttp://scontent-a.cdninstagram.com/hphotos-xaf1/t51.2885-15/s150x150/e15/10914657_1605909799638931_786683908_n.jpg
p796
aVhttp://scontent-a.cdninstagram.com/hphotos-xaf1/t51.2885-15/s150x150/e15/10945266_1567253766853583_916130032_n.jpg
p797
aVhttp://scontent-b.cdninstagram.com/hphotos-xaf1/t51.2885-15/s150x150/e15/10903455_903217809709280_523412205_n.jpg
p798
aVhttp://scontent-a.cdninstagram.com/hphotos-xaf1/t51.2885-15/s150x150/e15/10948765_656441647798841_804686002_n.jpg
p799
aVhttp://scontent-a.cdninstagram.com/hphotos-xfa1/t51.2885-15/s150x150/e15/10948211_605972619533302_645831200_n.jpg
p800
aVhttp://scontent-b.cdninstagram.com/hphotos-xpf1/t51.2885-15/s150x150/e15/10518172_777396549015304_1953364832_n.jpg
p801
aVhttp://scontent-b.cdninstagram.com/hphotos-xaf1/t51.2885-15/s150x150/e15/10948809_865150576883864_294466459_n.jpg
p802
aVhttp://scontent-b.cdninstagram.com/hphotos-xfa1/t51.2885-15/s150x150/e15/10956617_1547688805485058_734382665_n.jpg
p803
aVhttp://scontent-a.cdninstagram.com/hphotos-xaf1/t51.2885-15/s150x150/e15/10948179_345403445644425_1310645395_n.jpg
p804
aVhttp://scontent-a.cdninstagram.com/hphotos-xaf1/t51.2885-15/s150x150/e15/10950495_1572366863006582_1445741959_n.jpg
p805
aVhttp://scontent-a.cdninstagram.com/hphotos-xaf1/t51.2885-15/s150x150/e15/10950336_400736743433963_2057802572_n.jpg
p806
aVhttp://scontent-b.cdninstagram.com/hphotos-xaf1/t51.2885-15/s150x150/e15/10948665_1528150040801234_156766458_n.jpg
p807
aVhttp://scontent-a.cdninstagram.com/hphotos-xpf1/t51.2885-15/s150x150/e15/10005527_1534442650169910_584683220_n.jpg
p808
aVhttp://scontent-a.cdninstagram.com/hphotos-xaf1/t51.2885-15/s150x150/e15/10932532_646345602140453_1124326276_n.jpg
p809
aVhttp://scontent-b.cdninstagram.com/hphotos-xfa1/t51.2885-15/s150x150/e15/10949018_730656457041535_1825184363_n.jpg
p810
asg119
F-73.98828253
sg120
(lp811
I3
aI7
aI7
aI8
aI7
aI6
aI5
aI7
aI11
aI13
aI5
aI2
aI4
aI5
aI3
aI3
aI7
aI2
aI8
aI4
aI9
aI11
aI9
aI14
aI7
aI8
aI4
aI8
aI3
aI3
aI6
aI7
aI8
aI14
aI16
aI15
aI11
aI15
aI8
aI11
aI8
aI8
aI10
aI9
aI5
aI4
aI6
aI4
aI8
aI13
aI9
aI7
aI9
aI6
aI10
aI9
aI6
aI6
aI5
aI6
aI18
aI13
aI10
aI15
aI15
aI39
aI46
aI33
aI50
aI32
aI11
aI13
aI22
aI7
aI14
aI3
aI11
aI20
aI17
aI8
aI21
aI21
aI24
aI35
aI24
aI13
aI18
aI8
aI10
aI8
asg122
F40.742099994
sg123
S'Madison Square Park'
p812
ssg1
(g5
S'\xaf\xcb\xbc\x0c\x00\x00\x00\x00'
p813
tp814
Rp815
(dp816
g12
(lp817
S'2015-01-22 09:00:00'
p818
aS'2015-01-22 10:00:00'
p819
aS'2015-01-22 11:00:00'
p820
aS'2015-01-22 12:00:00'
p821
aS'2015-01-22 13:00:00'
p822
aS'2015-01-22 14:00:00'
p823
aS'2015-01-22 15:00:00'
p824
aS'2015-01-22 16:00:00'
p825
aS'2015-01-22 17:00:00'
p826
aS'2015-01-22 18:00:00'
p827
aS'2015-01-22 19:00:00'
p828
aS'2015-01-22 20:00:00'
p829
aS'2015-01-22 21:00:00'
p830
aS'2015-01-22 22:00:00'
p831
aS'2015-01-22 23:00:00'
p832
aS'2015-01-23 09:00:00'
p833
aS'2015-01-23 10:00:00'
p834
aS'2015-01-23 11:00:00'
p835
aS'2015-01-23 12:00:00'
p836
aS'2015-01-23 13:00:00'
p837
aS'2015-01-23 14:00:00'
p838
aS'2015-01-23 15:00:00'
p839
aS'2015-01-23 16:00:00'
p840
aS'2015-01-23 17:00:00'
p841
aS'2015-01-23 18:00:00'
p842
aS'2015-01-23 19:00:00'
p843
aS'2015-01-23 20:00:00'
p844
aS'2015-01-23 21:00:00'
p845
aS'2015-01-23 22:00:00'
p846
aS'2015-01-23 23:00:00'
p847
aS'2015-01-24 09:00:00'
p848
aS'2015-01-24 10:00:00'
p849
aS'2015-01-24 11:00:00'
p850
aS'2015-01-24 12:00:00'
p851
aS'2015-01-24 13:00:00'
p852
aS'2015-01-24 14:00:00'
p853
aS'2015-01-24 15:00:00'
p854
aS'2015-01-24 16:00:00'
p855
aS'2015-01-24 17:00:00'
p856
aS'2015-01-24 18:00:00'
p857
aS'2015-01-24 19:00:00'
p858
aS'2015-01-24 20:00:00'
p859
aS'2015-01-24 21:00:00'
p860
aS'2015-01-24 22:00:00'
p861
aS'2015-01-24 23:00:00'
p862
aS'2015-01-25 09:00:00'
p863
aS'2015-01-25 10:00:00'
p864
aS'2015-01-25 11:00:00'
p865
aS'2015-01-25 12:00:00'
p866
aS'2015-01-25 13:00:00'
p867
aS'2015-01-25 14:00:00'
p868
aS'2015-01-25 15:00:00'
p869
aS'2015-01-25 16:00:00'
p870
aS'2015-01-25 17:00:00'
p871
aS'2015-01-25 18:00:00'
p872
aS'2015-01-25 19:00:00'
p873
aS'2015-01-25 20:00:00'
p874
aS'2015-01-25 21:00:00'
p875
aS'2015-01-25 22:00:00'
p876
aS'2015-01-25 23:00:00'
p877
aS'2015-01-26 09:00:00'
p878
aS'2015-01-26 10:00:00'
p879
aS'2015-01-26 11:00:00'
p880
aS'2015-01-26 12:00:00'
p881
aS'2015-01-26 13:00:00'
p882
aS'2015-01-26 14:00:00'
p883
aS'2015-01-26 15:00:00'
p884
aS'2015-01-26 16:00:00'
p885
aS'2015-01-26 17:00:00'
p886
aS'2015-01-26 18:00:00'
p887
aS'2015-01-26 19:00:00'
p888
aS'2015-01-26 20:00:00'
p889
aS'2015-01-26 21:00:00'
p890
aS'2015-01-26 22:00:00'
p891
aS'2015-01-26 23:00:00'
p892
aS'2015-01-27 09:00:00'
p893
aS'2015-01-27 10:00:00'
p894
aS'2015-01-27 11:00:00'
p895
aS'2015-01-27 12:00:00'
p896
aS'2015-01-27 13:00:00'
p897
aS'2015-01-27 14:00:00'
p898
aS'2015-01-27 15:00:00'
p899
aS'2015-01-27 16:00:00'
p900
aS'2015-01-27 17:00:00'
p901
aS'2015-01-27 18:00:00'
p902
aS'2015-01-27 19:00:00'
p903
aS'2015-01-27 20:00:00'
p904
aS'2015-01-27 21:00:00'
p905
aS'2015-01-27 22:00:00'
p906
aS'2015-01-27 23:00:00'
p907
asg104
g105
sg106
(lp908
Vhttp://scontent-a.cdninstagram.com/hphotos-xaf1/t51.2885-15/s150x150/e15/10723966_711952275569794_1296521329_n.jpg
p909
aVhttp://scontent-b.cdninstagram.com/hphotos-xaf1/t51.2885-15/s150x150/e15/10956543_329034357305461_1088825121_n.jpg
p910
aVhttp://scontent-a.cdninstagram.com/hphotos-xaf1/t51.2885-15/s150x150/e15/10950393_339845162878307_765680216_n.jpg
p911
aVhttp://scontent-a.cdninstagram.com/hphotos-xaf1/t51.2885-15/s150x150/e15/10946698_1535195076744110_632260512_n.jpg
p912
aVhttp://scontent-a.cdninstagram.com/hphotos-xaf1/t51.2885-15/s150x150/e15/10932184_663153750459927_273177977_n.jpg
p913
aVhttp://scontent-b.cdninstagram.com/hphotos-xaf1/t51.2885-15/s150x150/e15/10948687_1527098080888652_1941997587_n.jpg
p914
aVhttp://scontent-b.cdninstagram.com/hphotos-xaf1/t51.2885-15/s150x150/e15/10949053_772200312863700_1705131442_n.jpg
p915
aVhttp://scontent-a.cdninstagram.com/hphotos-xfa1/t51.2885-15/s150x150/e15/10895273_1597252257174261_151701203_n.jpg
p916
aVhttp://scontent-a.cdninstagram.com/hphotos-xaf1/t51.2885-15/s150x150/e15/10953634_1405968013036469_1528615612_n.jpg
p917
aVhttp://scontent-b.cdninstagram.com/hphotos-xaf1/t51.2885-15/s150x150/e15/10950469_581142038686907_1690297462_n.jpg
p918
aVhttp://scontent-a.cdninstagram.com/hphotos-xfa1/t51.2885-15/s150x150/e15/10932353_1538785126398442_300200998_n.jpg
p919
aVhttp://scontent-a.cdninstagram.com/hphotos-xfp1/t51.2885-15/s150x150/e15/10683865_1554149544871751_884914073_n.jpg
p920
aVhttp://scontent-b.cdninstagram.com/hphotos-xaf1/t51.2885-15/s150x150/e15/10954831_1531140880498039_844035069_n.jpg
p921
aVhttp://scontent-b.cdninstagram.com/hphotos-xpa1/t51.2885-15/s150x150/e15/928924_1592097954357633_753764647_n.jpg
p922
aVhttp://scontent-b.cdninstagram.com/hphotos-xaf1/t51.2885-15/s150x150/e15/10948392_1540831442861882_157185412_n.jpg
p923
aVhttp://scontent-b.cdninstagram.com/hphotos-xfa1/t51.2885-15/s150x150/e15/10948712_874423752609962_1910749149_n.jpg
p924
aVhttp://scontent-b.cdninstagram.com/hphotos-xfa1/t51.2885-15/s150x150/e15/10950554_806050309467845_780325644_n.jpg
p925
aVhttp://scontent-b.cdninstagram.com/hphotos-xaf1/t51.2885-15/s150x150/e15/10932331_842339299137793_1440821081_n.jpg
p926
asg119
F-73.971771896
sg120
(lp927
I3
aI0
aI4
aI2
aI2
aI8
aI2
aI2
aI3
aI11
aI0
aI3
aI3
aI2
aI4
aI1
aI1
aI3
aI2
aI8
aI4
aI7
aI4
aI6
aI3
aI3
aI1
aI1
aI5
aI1
aI6
aI9
aI8
aI12
aI6
aI14
aI16
aI10
aI12
aI11
aI6
aI6
aI2
aI5
aI3
aI6
aI8
aI7
aI15
aI8
aI15
aI11
aI7
aI11
aI8
aI9
aI2
aI5
aI5
aI2
aI5
aI0
aI5
aI3
aI12
aI6
aI14
aI14
aI13
aI10
aI8
aI12
aI5
aI6
aI8
aI9
aI18
aI12
aI17
aI13
aI30
aI34
aI32
aI40
aI24
aI26
aI33
aI15
aI5
aI9
asg122
F40.781529164
sg123
S'Central Park In Manhattan'
p928
ssg1
(g5
S'\xffP\xe3\x01\x00\x00\x00\x00'
p929
tp930
Rp931
(dp932
g12
(lp933
S'2015-01-22 09:00:00'
p934
aS'2015-01-22 10:00:00'
p935
aS'2015-01-22 11:00:00'
p936
aS'2015-01-22 12:00:00'
p937
aS'2015-01-22 13:00:00'
p938
aS'2015-01-22 14:00:00'
p939
aS'2015-01-22 15:00:00'
p940
aS'2015-01-22 16:00:00'
p941
aS'2015-01-22 17:00:00'
p942
aS'2015-01-22 18:00:00'
p943
aS'2015-01-22 19:00:00'
p944
aS'2015-01-22 20:00:00'
p945
aS'2015-01-22 21:00:00'
p946
aS'2015-01-22 22:00:00'
p947
aS'2015-01-22 23:00:00'
p948
aS'2015-01-23 09:00:00'
p949
aS'2015-01-23 10:00:00'
p950
aS'2015-01-23 11:00:00'
p951
aS'2015-01-23 12:00:00'
p952
aS'2015-01-23 13:00:00'
p953
aS'2015-01-23 14:00:00'
p954
aS'2015-01-23 15:00:00'
p955
aS'2015-01-23 16:00:00'
p956
aS'2015-01-23 17:00:00'
p957
aS'2015-01-23 18:00:00'
p958
aS'2015-01-23 19:00:00'
p959
aS'2015-01-23 20:00:00'
p960
aS'2015-01-23 21:00:00'
p961
aS'2015-01-23 22:00:00'
p962
aS'2015-01-23 23:00:00'
p963
aS'2015-01-24 09:00:00'
p964
aS'2015-01-24 10:00:00'
p965
aS'2015-01-24 11:00:00'
p966
aS'2015-01-24 12:00:00'
p967
aS'2015-01-24 13:00:00'
p968
aS'2015-01-24 14:00:00'
p969
aS'2015-01-24 15:00:00'
p970
aS'2015-01-24 16:00:00'
p971
aS'2015-01-24 17:00:00'
p972
aS'2015-01-24 18:00:00'
p973
aS'2015-01-24 19:00:00'
p974
aS'2015-01-24 20:00:00'
p975
aS'2015-01-24 21:00:00'
p976
aS'2015-01-24 22:00:00'
p977
aS'2015-01-24 23:00:00'
p978
aS'2015-01-25 09:00:00'
p979
aS'2015-01-25 10:00:00'
p980
aS'2015-01-25 11:00:00'
p981
aS'2015-01-25 12:00:00'
p982
aS'2015-01-25 13:00:00'
p983
aS'2015-01-25 14:00:00'
p984
aS'2015-01-25 15:00:00'
p985
aS'2015-01-25 16:00:00'
p986
aS'2015-01-25 17:00:00'
p987
aS'2015-01-25 18:00:00'
p988
aS'2015-01-25 19:00:00'
p989
aS'2015-01-25 20:00:00'
p990
aS'2015-01-25 21:00:00'
p991
aS'2015-01-25 22:00:00'
p992
aS'2015-01-25 23:00:00'
p993
aS'2015-01-26 09:00:00'
p994
aS'2015-01-26 10:00:00'
p995
aS'2015-01-26 11:00:00'
p996
aS'2015-01-26 12:00:00'
p997
aS'2015-01-26 13:00:00'
p998
aS'2015-01-26 14:00:00'
p999
aS'2015-01-26 15:00:00'
p1000
aS'2015-01-26 16:00:00'
p1001
aS'2015-01-26 17:00:00'
p1002
aS'2015-01-26 18:00:00'
p1003
aS'2015-01-26 19:00:00'
p1004
aS'2015-01-26 20:00:00'
p1005
aS'2015-01-26 21:00:00'
p1006
aS'2015-01-26 22:00:00'
p1007
aS'2015-01-26 23:00:00'
p1008
aS'2015-01-27 09:00:00'
p1009
aS'2015-01-27 10:00:00'
p1010
aS'2015-01-27 11:00:00'
p1011
aS'2015-01-27 12:00:00'
p1012
aS'2015-01-27 13:00:00'
p1013
aS'2015-01-27 14:00:00'
p1014
aS'2015-01-27 15:00:00'
p1015
aS'2015-01-27 16:00:00'
p1016
aS'2015-01-27 17:00:00'
p1017
aS'2015-01-27 18:00:00'
p1018
aS'2015-01-27 19:00:00'
p1019
aS'2015-01-27 20:00:00'
p1020
aS'2015-01-27 21:00:00'
p1021
aS'2015-01-27 22:00:00'
p1022
aS'2015-01-27 23:00:00'
p1023
asg104
g105
sg106
(lp1024
Vhttp://scontent-a.cdninstagram.com/hphotos-xfa1/t51.2885-15/s150x150/e15/10932212_777613658953969_1296651349_n.jpg
p1025
aVhttp://scontent-b.cdninstagram.com/hphotos-xpa1/t51.2885-15/s150x150/e15/924137_784275461660481_848074027_n.jpg
p1026
aVhttp://scontent-a.cdninstagram.com/hphotos-xaf1/t51.2885-15/s150x150/e15/10953070_1539891466296508_1422577482_n.jpg
p1027
aVhttp://scontent-a.cdninstagram.com/hphotos-xfa1/t51.2885-15/s150x150/e15/10895309_1570152109894762_1498063382_n.jpg
p1028
aVhttp://scontent-a.cdninstagram.com/hphotos-xaf1/t51.2885-15/s150x150/e15/10946647_1374384842872753_1699688587_n.jpg
p1029
aVhttp://scontent-a.cdninstagram.com/hphotos-xaf1/t51.2885-15/s150x150/e15/10948252_321049948088527_821010150_n.jpg
p1030
aVhttp://scontent-a.cdninstagram.com/hphotos-xaf1/t51.2885-15/s150x150/e15/10953675_686689654775338_1031747958_n.jpg
p1031
aVhttp://scontent-b.cdninstagram.com/hphotos-xaf1/t51.2885-15/s150x150/e15/10903228_1570953136486482_818553574_n.jpg
p1032
aVhttp://scontent-b.cdninstagram.com/hphotos-xfa1/t51.2885-15/s150x150/e15/10946669_1026553824026554_978963236_n.jpg
p1033
aVhttp://scontent-a.cdninstagram.com/hphotos-xfa1/t51.2885-15/s150x150/e15/10895318_1535976956680391_1727988370_n.jpg
p1034
asg119
F-73.974085943
sg120
(lp1035
I1
aI0
aI4
aI4
aI3
aI2
aI6
aI5
aI2
aI3
aI8
aI11
aI2
aI2
aI3
aI2
aI3
aI4
aI10
aI6
aI4
aI8
aI9
aI5
aI4
aI5
aI4
aI2
aI6
aI6
aI0
aI5
aI0
aI9
aI8
aI5
aI7
aI13
aI13
aI12
aI5
aI5
aI3
aI4
aI2
aI0
aI3
aI8
aI5
aI10
aI11
aI6
aI3
aI5
aI9
aI10
aI3
aI4
aI1
aI1
aI0
aI1
aI3
aI2
aI3
aI5
aI3
aI6
aI6
aI2
aI2
aI3
aI2
aI2
aI2
aI2
aI2
aI1
aI2
aI3
aI6
aI6
aI5
aI6
aI6
aI5
aI2
aI3
aI0
aI0
asg122
F40.76422884
sg123
S'The Plaza Hotel'
p1036
ss.